(dp1
S'ulog'
p2
I393000
sS'angelic'
p3
I10400000
sS'arcadian'
p4
I1400000
sS'hebrew'
p5
I87500000
sS'kannada'
p6
I49200000
sS'aurek-besh'
p7
I1640
sS'ojibwe (canadian aboriginal syllabics)'
p8
I770000
sS'futurama'
p9
I9670000
sS'inuktitut (canadian aboriginal syllabics)'
p10
I1100000
sS'japanese (hiragana)'
p11
I505000000
sS'malay (jawi - arabic)'
p12
I60700000
sS'manipuri'
p13
I969000
sS'atlantean'
p14
I401000
sS'old church slavonic (cyrillic)'
p15
I6590000
sS'oriya'
p16
I17900000
sS'avesta'
p17
I4870000
sS"n'ko"
p18
I856000
sS'gujarati'
p19
I33400000
sS'syriac (serto)'
p20
I2780000
sS'early aramaic'
p21
I946000
sS'burmese (myanmar)'
p22
I73500000
sS'syriac (estrangelo)'
p23
I2560000
sS'sanskrit'
p24
I22400000
sS'korean'
p25
I146000000
sS'balinese'
p26
I6970000
sS'latin'
p27
I200000000
sS'gurmukhi'
p28
I441000
sS'blackfoot (canadian aboriginal syllabics)'
p29
I1950000
sS'sylheti'
p30
I733000
sS'grantha'
p31
I972000
sS'asomtavruli (georgian)'
p32
I47900000
sS'tengwar'
p33
I86100
sS'japanese (katakana)'
p34
I505000000
sS'bengali'
p35
I35700000
sS'mkhedruli (georgian)'
p36
I48000000
sS'atemayar qelisay\xc3\xa9r'
p37
I506
sS'tibetan'
p38
I14300000
sS"ge'ez"
p39
I3130000
sS'armenian'
p40
I62900000
sS'tifinagh'
p41
I375000
sS'glagolitic'
p42
I392000
sS'braille'
p43
I30100000
sS'cyrillic'
p44
I10800000
sS'greek'
p45
I186000000
sS'keble'
p46
I1080000
sS'tagalog'
p47
I31400000
sS'malayalam'
p48
I26400000
sS'alphabet of the magi'
p49
I139000
sS'anglo-saxon futhorc'
p50
I31000
sS'mongolian'
p51
I26400000
s.