crandom
Random
p1
(tRp2
(I2
(I-2147483648
I1627325621
I-1461856334
I126934544
I-152974860
I-691015868
I-1647190760
I-462339249
I794462691
I1297009121
I-1506423188
I1264389512
I-1988470383
I-1692267241
I1555136133
I-1340729943
I18762645
I884786611
I-1095292387
I-1057315443
I208511427
I-1377783671
I-1271582223
I22847582
I1091140366
I210123080
I1519314812
I1809195434
I-869027353
I411507293
I819730721
I-843329535
I-1663572040
I1153208163
I-1524276221
I-685838684
I366133795
I1755792220
I-217205950
I97756004
I-1576329392
I814979827
I938241162
I-867867532
I1491020673
I1950620378
I1750934750
I-1511002031
I1293115275
I400862027
I38061339
I-1056189620
I-718123935
I728496198
I-2098239569
I-1897209049
I1858773881
I184775681
I-1672100718
I-1800414620
I-17624206
I15416885
I-1707095246
I-2093949556
I846134126
I614557795
I-1703789828
I-1710031670
I-1450526367
I1695321756
I1643004262
I-1475201450
I1400869569
I-821608555
I1648269416
I155282011
I205190365
I-508939797
I-968215982
I-1560468771
I1906598108
I701782045
I2058882743
I-1030027854
I1975756855
I1971554133
I1266990752
I-331023661
I-778292655
I-470386280
I1219040070
I-925765174
I932996886
I2040470459
I-112159447
I1440681768
I-193615689
I1642599782
I-1878400084
I501135133
I389230579
I1373689415
I-236717132
I-2108162503
I-279706016
I-863587019
I1810592364
I-2093491753
I-1173365277
I762040633
I-1620038991
I297605791
I598007390
I1961422570
I704483666
I-898199496
I616234540
I-1487907197
I1337044881
I1031381519
I-162767050
I1208350234
I297228539
I-1982498757
I-509953681
I-1351399931
I-2132672934
I-1332077904
I-1933714733
I1291329672
I-1708816653
I33113068
I-1485651054
I1330334780
I-60070261
I373333525
I-2142723822
I-939468679
I-1282261871
I-1616916587
I867918916
I-1316150220
I-1111004504
I-1738232596
I2055346939
I1139771543
I-1450135403
I732692638
I1759853768
I1657850117
I411234394
I1374858214
I361351760
I-1803109330
I-1585952543
I1480636895
I753999280
I1420186835
I521026422
I-1683431832
I1612175929
I2130432403
I466653997
I-1609921733
I-1707543169
I-485982525
I989228299
I71824927
I360288039
I-1349337022
I-2040173563
I-367730474
I-1624683690
I-967130101
I-174253348
I-1077807757
I-1610363104
I856265446
I-1168800764
I962682205
I-660686549
I386624216
I88890358
I1398342982
I2069180927
I-1775235111
I-366474331
I456033262
I-1700271891
I-249666965
I-231340813
I-1448557331
I2058902902
I-610897321
I2841699
I-1086696811
I1905594323
I1851749586
I290005510
I233037496
I-24375965
I1435004268
I-173560551
I-1057595951
I272884173
I1120066469
I-595490832
I125876195
I1849482524
I1998684964
I125416725
I-1830422234
I849332208
I-2092632553
I1905063479
I2020058127
I-1799414969
I-807717105
I-537380033
I-1014348705
I-442471872
I1578795972
I-1200974438
I-24507198
I-812181230
I997353216
I-1825924579
I1545224036
I704174232
I1514948465
I-1958254490
I-1831006139
I840887107
I2040702227
I1057322189
I-1872930357
I54201756
I-1207846233
I-636214977
I-1209610714
I-230317157
I731695179
I513357187
I-688696047
I-628059742
I1539713858
I-1670310035
I370923834
I-1298119137
I-278784546
I-849506677
I1936267763
I-2074820018
I-979187959
I385315761
I-339415001
I-1041448669
I-1884787967
I-269293630
I-672455133
I655380917
I-1429835963
I-1084389
I-1313113667
I-1644522705
I1416161992
I-1764782296
I-933229441
I729043501
I1208655458
I744556894
I2093689982
I-500246527
I9062046
I261715808
I283675290
I369170141
I-1036539916
I1813775947
I1901718676
I-1386790252
I1565490169
I546991897
I1548327941
I-1396175329
I670542729
I-395382003
I15388902
I1959823110
I1840932433
I41882159
I469909882
I1092370986
I-1687515361
I480084724
I1965819785
I-518878545
I-777777799
I-1658721379
I270195434
I2010516068
I107139204
I-217644435
I1192448031
I-87626876
I199953110
I905710247
I-87906617
I1493988773
I1067337319
I677553475
I208145074
I-68584148
I791234696
I859128308
I-1814997787
I-421482938
I658760300
I-1039062649
I-1998356156
I1629314499
I-1588132644
I-2078145173
I527102780
I-496002228
I1427422306
I-2093657119
I1682342539
I134304415
I1991703361
I172853565
I1233937485
I615742690
I-433179813
I-209691217
I2048571201
I1067207507
I150661386
I703608903
I-64980888
I1464292091
I1480623212
I-1967331141
I-98420176
I1419399784
I-1545558010
I-1666689846
I-1935005920
I-597107536
I-1567239220
I-1594853453
I-34943906
I-770146604
I230856707
I2116074303
I-1883937500
I-1256189040
I-1044658062
I-1599547089
I-264511029
I-1430372321
I-1548065296
I1071959870
I1197658962
I1278466935
I-1347696891
I1415319838
I1357366891
I520092924
I-142097640
I351447637
I1720430739
I-1421749954
I-342220105
I698346358
I1980636062
I2062789515
I453578158
I958039575
I1200218653
I1531115771
I1684607978
I-510214009
I268881054
I-467641716
I436776934
I1279653549
I1038908966
I576172934
I1233279623
I1379143100
I2048163099
I1120527801
I1845989585
I-45145
I557523399
I-1619798620
I164937753
I460239529
I104833938
I-925350377
I-905334806
I-1669928497
I143671696
I-1501641475
I-1130504812
I453948794
I195189445
I-626530592
I894747916
I312149567
I1630616415
I-818133044
I-1417057887
I-1971325031
I-2143476781
I1196149395
I-1735490119
I-1954864798
I2131753743
I2035568890
I114546907
I-1687296062
I-2058927518
I2027164939
I-75378231
I54238190
I-1588329497
I581651241
I-1265144426
I-1674303586
I-1895276588
I1173605702
I-1018619934
I-831181506
I946665174
I-1886372782
I523865351
I-1629564112
I497617692
I-721941093
I1931437333
I-507931540
I761467799
I1769747550
I-440154922
I-2078572741
I-1720288175
I-1566407042
I-1992448983
I962996165
I-1611911848
I-1033563202
I-1182053116
I475206929
I552954099
I2032814198
I476756471
I-664418305
I1778503142
I-273737906
I-109038016
I1520002948
I477704108
I-896426588
I-2101179450
I249373493
I-1014763914
I1712973865
I-299355226
I-1751611689
I981058182
I690850865
I-1387882105
I1837449312
I-1656631476
I-250239903
I-956021382
I1738210040
I-1195599622
I2075741274
I-413000994
I1881058378
I940177280
I36554276
I463828269
I762882137
I-1875230324
I-1724509272
I-1493616652
I1323588347
I-1544647984
I-554330135
I-279957134
I741527138
I-322584128
I-1020776534
I317009526
I-1665610282
I433849806
I-341508761
I2056642298
I927828609
I-1723943898
I-425333533
I1931881902
I13815313
I811852584
I1792956610
I502260444
I2046851366
I956610620
I-1958989932
I-1496037542
I-99664931
I-1295953695
I1265215160
I-1025783809
I1780302252
I-1667603804
I-367998515
I1012226950
I852724337
I1779017877
I1697202050
I756343805
I-1915165084
I-598208981
I730483568
I1843282038
I117258256
I-624941810
I879388358
I-1467326269
I651167301
I-652775088
I-1229418251
I268545295
I-1896719636
I-541870664
I1721779848
I-804069018
I1466382517
I887052438
I-1998821745
I1027486487
I1625681392
I1975926632
I1106791831
I1354052179
I-302047755
I929243825
I1002462968
I1840352390
I587728942
I1499708011
I988685886
I658948193
I635826257
I626397788
I-1170595060
I-778264788
I-35538168
I79415355
I-584658718
I-520661029
I1256665273
I-806883843
I-1990102155
I-233659245
I761954142
I275565394
I-189885831
I-623683012
I-1327322771
I-907866458
I-628914358
I-2017869361
I-1002191349
I3968986
I-2113660876
I874161257
I-782171991
I-1634364952
I-1378251733
I1399645418
I860116428
I2052299897
I-2140037652
I527226572
I-1144018216
I-111080191
I-2014257113
I-1023276276
I1122327679
I-893897366
I523336460
I2053693989
I-1865616794
I223009301
I407222974
I74879170
I-1454820790
I1388112515
I1620400033
I-920799698
I1461848447
I-848443041
I-308625275
I373063357
I1747181983
I1780272246
I-414040867
I-337802605
I-1507634994
I447343413
I-1607219469
I-1666864878
I2071788780
I947180692
I1702389151
I-778188023
I857277227
I-1815669040
I624
tNtb.