(dp1
S'ulog'
p2
(dp3
S'-6933527752756115883'
p4
(lp5
S'/afs/athena.mit.edu/user/j/g/jgross/web_scripts/alphabets/results/unreviewed/m6933527752756115883/1/ulog_01_-6933527752756115883.png'
p6
aS'/afs/athena.mit.edu/user/j/g/jgross/web_scripts/alphabets/results/unreviewed/m6933527752756115883/1/ulog_02_-6933527752756115883.png'
p7
aS'/afs/athena.mit.edu/user/j/g/jgross/web_scripts/alphabets/results/unreviewed/m6933527752756115883/1/ulog_03_-6933527752756115883.png'
p8
aS'/afs/athena.mit.edu/user/j/g/jgross/web_scripts/alphabets/results/unreviewed/m6933527752756115883/1/ulog_04_-6933527752756115883.png'
p9
aS'/afs/athena.mit.edu/user/j/g/jgross/web_scripts/alphabets/results/unreviewed/m6933527752756115883/1/ulog_05_-6933527752756115883.png'
p10
aS'/afs/athena.mit.edu/user/j/g/jgross/web_scripts/alphabets/results/unreviewed/m6933527752756115883/1/ulog_06_-6933527752756115883.png'
p11
aS'/afs/athena.mit.edu/user/j/g/jgross/web_scripts/alphabets/results/unreviewed/m6933527752756115883/1/ulog_07_-6933527752756115883.png'
p12
aS'/afs/athena.mit.edu/user/j/g/jgross/web_scripts/alphabets/results/unreviewed/m6933527752756115883/1/ulog_08_-6933527752756115883.png'
p13
aS'/afs/athena.mit.edu/user/j/g/jgross/web_scripts/alphabets/results/unreviewed/m6933527752756115883/1/ulog_09_-6933527752756115883.png'
p14
aS'/afs/athena.mit.edu/user/j/g/jgross/web_scripts/alphabets/results/unreviewed/m6933527752756115883/1/ulog_10_-6933527752756115883.png'
p15
aS'/afs/athena.mit.edu/user/j/g/jgross/web_scripts/alphabets/results/unreviewed/m6933527752756115883/1/ulog_11_-6933527752756115883.png'
p16
aS'/afs/athena.mit.edu/user/j/g/jgross/web_scripts/alphabets/results/unreviewed/m6933527752756115883/1/ulog_12_-6933527752756115883.png'
p17
aS'/afs/athena.mit.edu/user/j/g/jgross/web_scripts/alphabets/results/unreviewed/m6933527752756115883/1/ulog_13_-6933527752756115883.png'
p18
aS'/afs/athena.mit.edu/user/j/g/jgross/web_scripts/alphabets/results/unreviewed/m6933527752756115883/1/ulog_14_-6933527752756115883.png'
p19
aS'/afs/athena.mit.edu/user/j/g/jgross/web_scripts/alphabets/results/unreviewed/m6933527752756115883/1/ulog_15_-6933527752756115883.png'
p20
aS'/afs/athena.mit.edu/user/j/g/jgross/web_scripts/alphabets/results/unreviewed/m6933527752756115883/1/ulog_16_-6933527752756115883.png'
p21
aS'/afs/athena.mit.edu/user/j/g/jgross/web_scripts/alphabets/results/unreviewed/m6933527752756115883/1/ulog_17_-6933527752756115883.png'
p22
aS'/afs/athena.mit.edu/user/j/g/jgross/web_scripts/alphabets/results/unreviewed/m6933527752756115883/1/ulog_18_-6933527752756115883.png'
p23
aS'/afs/athena.mit.edu/user/j/g/jgross/web_scripts/alphabets/results/unreviewed/m6933527752756115883/1/ulog_19_-6933527752756115883.png'
p24
aS'/afs/athena.mit.edu/user/j/g/jgross/web_scripts/alphabets/results/unreviewed/m6933527752756115883/1/ulog_20_-6933527752756115883.png'
p25
aS'/afs/athena.mit.edu/user/j/g/jgross/web_scripts/alphabets/results/unreviewed/m6933527752756115883/1/ulog_21_-6933527752756115883.png'
p26
aS'/afs/athena.mit.edu/user/j/g/jgross/web_scripts/alphabets/results/unreviewed/m6933527752756115883/1/ulog_22_-6933527752756115883.png'
p27
aS'/afs/athena.mit.edu/user/j/g/jgross/web_scripts/alphabets/results/unreviewed/m6933527752756115883/1/ulog_23_-6933527752756115883.png'
p28
aS'/afs/athena.mit.edu/user/j/g/jgross/web_scripts/alphabets/results/unreviewed/m6933527752756115883/1/ulog_24_-6933527752756115883.png'
p29
aS'/afs/athena.mit.edu/user/j/g/jgross/web_scripts/alphabets/results/unreviewed/m6933527752756115883/1/ulog_25_-6933527752756115883.png'
p30
aS'/afs/athena.mit.edu/user/j/g/jgross/web_scripts/alphabets/results/unreviewed/m6933527752756115883/1/ulog_26_-6933527752756115883.png'
p31
assS'myanmar'
p32
(dp33
S'6024594863071535639'
p34
(lp35
S'/afs/athena.mit.edu/user/j/g/jgross/web_scripts/alphabets/results/unreviewed/6024594863071535639/0/myanmar_01_6024594863071535639.png'
p36
aS'/afs/athena.mit.edu/user/j/g/jgross/web_scripts/alphabets/results/unreviewed/6024594863071535639/0/myanmar_02_6024594863071535639.png'
p37
aS'/afs/athena.mit.edu/user/j/g/jgross/web_scripts/alphabets/results/unreviewed/6024594863071535639/0/myanmar_03_6024594863071535639.png'
p38
aS'/afs/athena.mit.edu/user/j/g/jgross/web_scripts/alphabets/results/unreviewed/6024594863071535639/0/myanmar_04_6024594863071535639.png'
p39
aS'/afs/athena.mit.edu/user/j/g/jgross/web_scripts/alphabets/results/unreviewed/6024594863071535639/0/myanmar_05_6024594863071535639.png'
p40
aS'/afs/athena.mit.edu/user/j/g/jgross/web_scripts/alphabets/results/unreviewed/6024594863071535639/0/myanmar_06_6024594863071535639.png'
p41
aS'/afs/athena.mit.edu/user/j/g/jgross/web_scripts/alphabets/results/unreviewed/6024594863071535639/0/myanmar_07_6024594863071535639.png'
p42
aS'/afs/athena.mit.edu/user/j/g/jgross/web_scripts/alphabets/results/unreviewed/6024594863071535639/0/myanmar_08_6024594863071535639.png'
p43
aS'/afs/athena.mit.edu/user/j/g/jgross/web_scripts/alphabets/results/unreviewed/6024594863071535639/0/myanmar_09_6024594863071535639.png'
p44
aS'/afs/athena.mit.edu/user/j/g/jgross/web_scripts/alphabets/results/unreviewed/6024594863071535639/0/myanmar_10_6024594863071535639.png'
p45
aS'/afs/athena.mit.edu/user/j/g/jgross/web_scripts/alphabets/results/unreviewed/6024594863071535639/0/myanmar_11_6024594863071535639.png'
p46
aS'/afs/athena.mit.edu/user/j/g/jgross/web_scripts/alphabets/results/unreviewed/6024594863071535639/0/myanmar_12_6024594863071535639.png'
p47
aS'/afs/athena.mit.edu/user/j/g/jgross/web_scripts/alphabets/results/unreviewed/6024594863071535639/0/myanmar_13_6024594863071535639.png'
p48
aS'/afs/athena.mit.edu/user/j/g/jgross/web_scripts/alphabets/results/unreviewed/6024594863071535639/0/myanmar_14_6024594863071535639.png'
p49
aS'/afs/athena.mit.edu/user/j/g/jgross/web_scripts/alphabets/results/unreviewed/6024594863071535639/0/myanmar_15_6024594863071535639.png'
p50
aS'/afs/athena.mit.edu/user/j/g/jgross/web_scripts/alphabets/results/unreviewed/6024594863071535639/0/myanmar_16_6024594863071535639.png'
p51
aS'/afs/athena.mit.edu/user/j/g/jgross/web_scripts/alphabets/results/unreviewed/6024594863071535639/0/myanmar_17_6024594863071535639.png'
p52
aS'/afs/athena.mit.edu/user/j/g/jgross/web_scripts/alphabets/results/unreviewed/6024594863071535639/0/myanmar_18_6024594863071535639.png'
p53
aS'/afs/athena.mit.edu/user/j/g/jgross/web_scripts/alphabets/results/unreviewed/6024594863071535639/0/myanmar_19_6024594863071535639.png'
p54
aS'/afs/athena.mit.edu/user/j/g/jgross/web_scripts/alphabets/results/unreviewed/6024594863071535639/0/myanmar_20_6024594863071535639.png'
p55
aS'/afs/athena.mit.edu/user/j/g/jgross/web_scripts/alphabets/results/unreviewed/6024594863071535639/0/myanmar_21_6024594863071535639.png'
p56
aS'/afs/athena.mit.edu/user/j/g/jgross/web_scripts/alphabets/results/unreviewed/6024594863071535639/0/myanmar_22_6024594863071535639.png'
p57
aS'/afs/athena.mit.edu/user/j/g/jgross/web_scripts/alphabets/results/unreviewed/6024594863071535639/0/myanmar_23_6024594863071535639.png'
p58
aS'/afs/athena.mit.edu/user/j/g/jgross/web_scripts/alphabets/results/unreviewed/6024594863071535639/0/myanmar_24_6024594863071535639.png'
p59
aS'/afs/athena.mit.edu/user/j/g/jgross/web_scripts/alphabets/results/unreviewed/6024594863071535639/0/myanmar_25_6024594863071535639.png'
p60
aS'/afs/athena.mit.edu/user/j/g/jgross/web_scripts/alphabets/results/unreviewed/6024594863071535639/0/myanmar_26_6024594863071535639.png'
p61
aS'/afs/athena.mit.edu/user/j/g/jgross/web_scripts/alphabets/results/unreviewed/6024594863071535639/0/myanmar_27_6024594863071535639.png'
p62
aS'/afs/athena.mit.edu/user/j/g/jgross/web_scripts/alphabets/results/unreviewed/6024594863071535639/0/myanmar_28_6024594863071535639.png'
p63
aS'/afs/athena.mit.edu/user/j/g/jgross/web_scripts/alphabets/results/unreviewed/6024594863071535639/0/myanmar_29_6024594863071535639.png'
p64
aS'/afs/athena.mit.edu/user/j/g/jgross/web_scripts/alphabets/results/unreviewed/6024594863071535639/0/myanmar_30_6024594863071535639.png'
p65
aS'/afs/athena.mit.edu/user/j/g/jgross/web_scripts/alphabets/results/unreviewed/6024594863071535639/0/myanmar_31_6024594863071535639.png'
p66
aS'/afs/athena.mit.edu/user/j/g/jgross/web_scripts/alphabets/results/unreviewed/6024594863071535639/0/myanmar_32_6024594863071535639.png'
p67
aS'/afs/athena.mit.edu/user/j/g/jgross/web_scripts/alphabets/results/unreviewed/6024594863071535639/0/myanmar_33_6024594863071535639.png'
p68
aS'/afs/athena.mit.edu/user/j/g/jgross/web_scripts/alphabets/results/unreviewed/6024594863071535639/0/myanmar_34_6024594863071535639.png'
p69
assS'neorunic'
p70
(dp71
S'763228222271624647'
p72
(lp73
S'/afs/athena.mit.edu/user/j/g/jgross/web_scripts/alphabets/results/unreviewed/763228222271624647/2/neorunic_01_763228222271624647.png'
p74
aS'/afs/athena.mit.edu/user/j/g/jgross/web_scripts/alphabets/results/unreviewed/763228222271624647/2/neorunic_02_763228222271624647.png'
p75
aS'/afs/athena.mit.edu/user/j/g/jgross/web_scripts/alphabets/results/unreviewed/763228222271624647/2/neorunic_03_763228222271624647.png'
p76
aS'/afs/athena.mit.edu/user/j/g/jgross/web_scripts/alphabets/results/unreviewed/763228222271624647/2/neorunic_04_763228222271624647.png'
p77
aS'/afs/athena.mit.edu/user/j/g/jgross/web_scripts/alphabets/results/unreviewed/763228222271624647/2/neorunic_05_763228222271624647.png'
p78
aS'/afs/athena.mit.edu/user/j/g/jgross/web_scripts/alphabets/results/unreviewed/763228222271624647/2/neorunic_06_763228222271624647.png'
p79
aS'/afs/athena.mit.edu/user/j/g/jgross/web_scripts/alphabets/results/unreviewed/763228222271624647/2/neorunic_07_763228222271624647.png'
p80
aS'/afs/athena.mit.edu/user/j/g/jgross/web_scripts/alphabets/results/unreviewed/763228222271624647/2/neorunic_08_763228222271624647.png'
p81
aS'/afs/athena.mit.edu/user/j/g/jgross/web_scripts/alphabets/results/unreviewed/763228222271624647/2/neorunic_09_763228222271624647.png'
p82
aS'/afs/athena.mit.edu/user/j/g/jgross/web_scripts/alphabets/results/unreviewed/763228222271624647/2/neorunic_10_763228222271624647.png'
p83
aS'/afs/athena.mit.edu/user/j/g/jgross/web_scripts/alphabets/results/unreviewed/763228222271624647/2/neorunic_11_763228222271624647.png'
p84
aS'/afs/athena.mit.edu/user/j/g/jgross/web_scripts/alphabets/results/unreviewed/763228222271624647/2/neorunic_12_763228222271624647.png'
p85
aS'/afs/athena.mit.edu/user/j/g/jgross/web_scripts/alphabets/results/unreviewed/763228222271624647/2/neorunic_13_763228222271624647.png'
p86
aS'/afs/athena.mit.edu/user/j/g/jgross/web_scripts/alphabets/results/unreviewed/763228222271624647/2/neorunic_14_763228222271624647.png'
p87
aS'/afs/athena.mit.edu/user/j/g/jgross/web_scripts/alphabets/results/unreviewed/763228222271624647/2/neorunic_15_763228222271624647.png'
p88
aS'/afs/athena.mit.edu/user/j/g/jgross/web_scripts/alphabets/results/unreviewed/763228222271624647/2/neorunic_16_763228222271624647.png'
p89
aS'/afs/athena.mit.edu/user/j/g/jgross/web_scripts/alphabets/results/unreviewed/763228222271624647/2/neorunic_17_763228222271624647.png'
p90
aS'/afs/athena.mit.edu/user/j/g/jgross/web_scripts/alphabets/results/unreviewed/763228222271624647/2/neorunic_18_763228222271624647.png'
p91
aS'/afs/athena.mit.edu/user/j/g/jgross/web_scripts/alphabets/results/unreviewed/763228222271624647/2/neorunic_19_763228222271624647.png'
p92
aS'/afs/athena.mit.edu/user/j/g/jgross/web_scripts/alphabets/results/unreviewed/763228222271624647/2/neorunic_20_763228222271624647.png'
p93
aS'/afs/athena.mit.edu/user/j/g/jgross/web_scripts/alphabets/results/unreviewed/763228222271624647/2/neorunic_21_763228222271624647.png'
p94
aS'/afs/athena.mit.edu/user/j/g/jgross/web_scripts/alphabets/results/unreviewed/763228222271624647/2/neorunic_22_763228222271624647.png'
p95
aS'/afs/athena.mit.edu/user/j/g/jgross/web_scripts/alphabets/results/unreviewed/763228222271624647/2/neorunic_23_763228222271624647.png'
p96
aS'/afs/athena.mit.edu/user/j/g/jgross/web_scripts/alphabets/results/unreviewed/763228222271624647/2/neorunic_24_763228222271624647.png'
p97
aS'/afs/athena.mit.edu/user/j/g/jgross/web_scripts/alphabets/results/unreviewed/763228222271624647/2/neorunic_25_763228222271624647.png'
p98
aS'/afs/athena.mit.edu/user/j/g/jgross/web_scripts/alphabets/results/unreviewed/763228222271624647/2/neorunic_26_763228222271624647.png'
p99
assS'inuktitut'
p100
(dp101
S'-5208217318093312035'
p102
(lp103
S'/afs/athena.mit.edu/user/j/g/jgross/web_scripts/alphabets/results/unreviewed/m5208217318093312035/0/inuktitut_01_-5208217318093312035.png'
p104
aS'/afs/athena.mit.edu/user/j/g/jgross/web_scripts/alphabets/results/unreviewed/m5208217318093312035/0/inuktitut_02_-5208217318093312035.png'
p105
aS'/afs/athena.mit.edu/user/j/g/jgross/web_scripts/alphabets/results/unreviewed/m5208217318093312035/0/inuktitut_03_-5208217318093312035.png'
p106
aS'/afs/athena.mit.edu/user/j/g/jgross/web_scripts/alphabets/results/unreviewed/m5208217318093312035/0/inuktitut_04_-5208217318093312035.png'
p107
aS'/afs/athena.mit.edu/user/j/g/jgross/web_scripts/alphabets/results/unreviewed/m5208217318093312035/0/inuktitut_05_-5208217318093312035.png'
p108
aS'/afs/athena.mit.edu/user/j/g/jgross/web_scripts/alphabets/results/unreviewed/m5208217318093312035/0/inuktitut_06_-5208217318093312035.png'
p109
aS'/afs/athena.mit.edu/user/j/g/jgross/web_scripts/alphabets/results/unreviewed/m5208217318093312035/0/inuktitut_07_-5208217318093312035.png'
p110
aS'/afs/athena.mit.edu/user/j/g/jgross/web_scripts/alphabets/results/unreviewed/m5208217318093312035/0/inuktitut_08_-5208217318093312035.png'
p111
aS'/afs/athena.mit.edu/user/j/g/jgross/web_scripts/alphabets/results/unreviewed/m5208217318093312035/0/inuktitut_09_-5208217318093312035.png'
p112
aS'/afs/athena.mit.edu/user/j/g/jgross/web_scripts/alphabets/results/unreviewed/m5208217318093312035/0/inuktitut_10_-5208217318093312035.png'
p113
aS'/afs/athena.mit.edu/user/j/g/jgross/web_scripts/alphabets/results/unreviewed/m5208217318093312035/0/inuktitut_11_-5208217318093312035.png'
p114
aS'/afs/athena.mit.edu/user/j/g/jgross/web_scripts/alphabets/results/unreviewed/m5208217318093312035/0/inuktitut_12_-5208217318093312035.png'
p115
aS'/afs/athena.mit.edu/user/j/g/jgross/web_scripts/alphabets/results/unreviewed/m5208217318093312035/0/inuktitut_13_-5208217318093312035.png'
p116
aS'/afs/athena.mit.edu/user/j/g/jgross/web_scripts/alphabets/results/unreviewed/m5208217318093312035/0/inuktitut_14_-5208217318093312035.png'
p117
aS'/afs/athena.mit.edu/user/j/g/jgross/web_scripts/alphabets/results/unreviewed/m5208217318093312035/0/inuktitut_15_-5208217318093312035.png'
p118
aS'/afs/athena.mit.edu/user/j/g/jgross/web_scripts/alphabets/results/unreviewed/m5208217318093312035/0/inuktitut_16_-5208217318093312035.png'
p119
asS'-8932567387632894297'
p120
(lp121
S'/afs/athena.mit.edu/user/j/g/jgross/web_scripts/alphabets/results/unreviewed/m8932567387632894297/1/inuktitut_01_-8932567387632894297.png'
p122
aS'/afs/athena.mit.edu/user/j/g/jgross/web_scripts/alphabets/results/unreviewed/m8932567387632894297/1/inuktitut_02_-8932567387632894297.png'
p123
aS'/afs/athena.mit.edu/user/j/g/jgross/web_scripts/alphabets/results/unreviewed/m8932567387632894297/1/inuktitut_03_-8932567387632894297.png'
p124
aS'/afs/athena.mit.edu/user/j/g/jgross/web_scripts/alphabets/results/unreviewed/m8932567387632894297/1/inuktitut_04_-8932567387632894297.png'
p125
aS'/afs/athena.mit.edu/user/j/g/jgross/web_scripts/alphabets/results/unreviewed/m8932567387632894297/1/inuktitut_05_-8932567387632894297.png'
p126
aS'/afs/athena.mit.edu/user/j/g/jgross/web_scripts/alphabets/results/unreviewed/m8932567387632894297/1/inuktitut_06_-8932567387632894297.png'
p127
aS'/afs/athena.mit.edu/user/j/g/jgross/web_scripts/alphabets/results/unreviewed/m8932567387632894297/1/inuktitut_07_-8932567387632894297.png'
p128
aS'/afs/athena.mit.edu/user/j/g/jgross/web_scripts/alphabets/results/unreviewed/m8932567387632894297/1/inuktitut_08_-8932567387632894297.png'
p129
aS'/afs/athena.mit.edu/user/j/g/jgross/web_scripts/alphabets/results/unreviewed/m8932567387632894297/1/inuktitut_09_-8932567387632894297.png'
p130
aS'/afs/athena.mit.edu/user/j/g/jgross/web_scripts/alphabets/results/unreviewed/m8932567387632894297/1/inuktitut_10_-8932567387632894297.png'
p131
aS'/afs/athena.mit.edu/user/j/g/jgross/web_scripts/alphabets/results/unreviewed/m8932567387632894297/1/inuktitut_11_-8932567387632894297.png'
p132
aS'/afs/athena.mit.edu/user/j/g/jgross/web_scripts/alphabets/results/unreviewed/m8932567387632894297/1/inuktitut_12_-8932567387632894297.png'
p133
aS'/afs/athena.mit.edu/user/j/g/jgross/web_scripts/alphabets/results/unreviewed/m8932567387632894297/1/inuktitut_13_-8932567387632894297.png'
p134
aS'/afs/athena.mit.edu/user/j/g/jgross/web_scripts/alphabets/results/unreviewed/m8932567387632894297/1/inuktitut_14_-8932567387632894297.png'
p135
aS'/afs/athena.mit.edu/user/j/g/jgross/web_scripts/alphabets/results/unreviewed/m8932567387632894297/1/inuktitut_15_-8932567387632894297.png'
p136
aS'/afs/athena.mit.edu/user/j/g/jgross/web_scripts/alphabets/results/unreviewed/m8932567387632894297/1/inuktitut_16_-8932567387632894297.png'
p137
assS'kannada'
p138
(dp139
S'-5208217318092312045'
p140
(lp141
S'/afs/athena.mit.edu/user/j/g/jgross/web_scripts/alphabets/results/unreviewed/m5208217318092312045/0/kannada_01_-5208217318092312045.png'
p142
aS'/afs/athena.mit.edu/user/j/g/jgross/web_scripts/alphabets/results/unreviewed/m5208217318092312045/0/kannada_02_-5208217318092312045.png'
p143
aS'/afs/athena.mit.edu/user/j/g/jgross/web_scripts/alphabets/results/unreviewed/m5208217318092312045/0/kannada_03_-5208217318092312045.png'
p144
aS'/afs/athena.mit.edu/user/j/g/jgross/web_scripts/alphabets/results/unreviewed/m5208217318092312045/0/kannada_04_-5208217318092312045.png'
p145
aS'/afs/athena.mit.edu/user/j/g/jgross/web_scripts/alphabets/results/unreviewed/m5208217318092312045/0/kannada_05_-5208217318092312045.png'
p146
aS'/afs/athena.mit.edu/user/j/g/jgross/web_scripts/alphabets/results/unreviewed/m5208217318092312045/0/kannada_06_-5208217318092312045.png'
p147
aS'/afs/athena.mit.edu/user/j/g/jgross/web_scripts/alphabets/results/unreviewed/m5208217318092312045/0/kannada_07_-5208217318092312045.png'
p148
aS'/afs/athena.mit.edu/user/j/g/jgross/web_scripts/alphabets/results/unreviewed/m5208217318092312045/0/kannada_08_-5208217318092312045.png'
p149
aS'/afs/athena.mit.edu/user/j/g/jgross/web_scripts/alphabets/results/unreviewed/m5208217318092312045/0/kannada_09_-5208217318092312045.png'
p150
aS'/afs/athena.mit.edu/user/j/g/jgross/web_scripts/alphabets/results/unreviewed/m5208217318092312045/0/kannada_10_-5208217318092312045.png'
p151
aS'/afs/athena.mit.edu/user/j/g/jgross/web_scripts/alphabets/results/unreviewed/m5208217318092312045/0/kannada_11_-5208217318092312045.png'
p152
aS'/afs/athena.mit.edu/user/j/g/jgross/web_scripts/alphabets/results/unreviewed/m5208217318092312045/0/kannada_12_-5208217318092312045.png'
p153
aS'/afs/athena.mit.edu/user/j/g/jgross/web_scripts/alphabets/results/unreviewed/m5208217318092312045/0/kannada_13_-5208217318092312045.png'
p154
aS'/afs/athena.mit.edu/user/j/g/jgross/web_scripts/alphabets/results/unreviewed/m5208217318092312045/0/kannada_14_-5208217318092312045.png'
p155
aS'/afs/athena.mit.edu/user/j/g/jgross/web_scripts/alphabets/results/unreviewed/m5208217318092312045/0/kannada_15_-5208217318092312045.png'
p156
aS'/afs/athena.mit.edu/user/j/g/jgross/web_scripts/alphabets/results/unreviewed/m5208217318092312045/0/kannada_16_-5208217318092312045.png'
p157
aS'/afs/athena.mit.edu/user/j/g/jgross/web_scripts/alphabets/results/unreviewed/m5208217318092312045/0/kannada_17_-5208217318092312045.png'
p158
aS'/afs/athena.mit.edu/user/j/g/jgross/web_scripts/alphabets/results/unreviewed/m5208217318092312045/0/kannada_18_-5208217318092312045.png'
p159
aS'/afs/athena.mit.edu/user/j/g/jgross/web_scripts/alphabets/results/unreviewed/m5208217318092312045/0/kannada_19_-5208217318092312045.png'
p160
aS'/afs/athena.mit.edu/user/j/g/jgross/web_scripts/alphabets/results/unreviewed/m5208217318092312045/0/kannada_20_-5208217318092312045.png'
p161
aS'/afs/athena.mit.edu/user/j/g/jgross/web_scripts/alphabets/results/unreviewed/m5208217318092312045/0/kannada_21_-5208217318092312045.png'
p162
aS'/afs/athena.mit.edu/user/j/g/jgross/web_scripts/alphabets/results/unreviewed/m5208217318092312045/0/kannada_22_-5208217318092312045.png'
p163
aS'/afs/athena.mit.edu/user/j/g/jgross/web_scripts/alphabets/results/unreviewed/m5208217318092312045/0/kannada_23_-5208217318092312045.png'
p164
aS'/afs/athena.mit.edu/user/j/g/jgross/web_scripts/alphabets/results/unreviewed/m5208217318092312045/0/kannada_24_-5208217318092312045.png'
p165
aS'/afs/athena.mit.edu/user/j/g/jgross/web_scripts/alphabets/results/unreviewed/m5208217318092312045/0/kannada_25_-5208217318092312045.png'
p166
aS'/afs/athena.mit.edu/user/j/g/jgross/web_scripts/alphabets/results/unreviewed/m5208217318092312045/0/kannada_26_-5208217318092312045.png'
p167
aS'/afs/athena.mit.edu/user/j/g/jgross/web_scripts/alphabets/results/unreviewed/m5208217318092312045/0/kannada_27_-5208217318092312045.png'
p168
aS'/afs/athena.mit.edu/user/j/g/jgross/web_scripts/alphabets/results/unreviewed/m5208217318092312045/0/kannada_28_-5208217318092312045.png'
p169
aS'/afs/athena.mit.edu/user/j/g/jgross/web_scripts/alphabets/results/unreviewed/m5208217318092312045/0/kannada_29_-5208217318092312045.png'
p170
aS'/afs/athena.mit.edu/user/j/g/jgross/web_scripts/alphabets/results/unreviewed/m5208217318092312045/0/kannada_30_-5208217318092312045.png'
p171
aS'/afs/athena.mit.edu/user/j/g/jgross/web_scripts/alphabets/results/unreviewed/m5208217318092312045/0/kannada_31_-5208217318092312045.png'
p172
aS'/afs/athena.mit.edu/user/j/g/jgross/web_scripts/alphabets/results/unreviewed/m5208217318092312045/0/kannada_32_-5208217318092312045.png'
p173
aS'/afs/athena.mit.edu/user/j/g/jgross/web_scripts/alphabets/results/unreviewed/m5208217318092312045/0/kannada_33_-5208217318092312045.png'
p174
aS'/afs/athena.mit.edu/user/j/g/jgross/web_scripts/alphabets/results/unreviewed/m5208217318092312045/0/kannada_34_-5208217318092312045.png'
p175
aS'/afs/athena.mit.edu/user/j/g/jgross/web_scripts/alphabets/results/unreviewed/m5208217318092312045/0/kannada_35_-5208217318092312045.png'
p176
aS'/afs/athena.mit.edu/user/j/g/jgross/web_scripts/alphabets/results/unreviewed/m5208217318092312045/0/kannada_36_-5208217318092312045.png'
p177
aS'/afs/athena.mit.edu/user/j/g/jgross/web_scripts/alphabets/results/unreviewed/m5208217318092312045/0/kannada_37_-5208217318092312045.png'
p178
aS'/afs/athena.mit.edu/user/j/g/jgross/web_scripts/alphabets/results/unreviewed/m5208217318092312045/0/kannada_38_-5208217318092312045.png'
p179
aS'/afs/athena.mit.edu/user/j/g/jgross/web_scripts/alphabets/results/unreviewed/m5208217318092312045/0/kannada_39_-5208217318092312045.png'
p180
aS'/afs/athena.mit.edu/user/j/g/jgross/web_scripts/alphabets/results/unreviewed/m5208217318092312045/0/kannada_40_-5208217318092312045.png'
p181
aS'/afs/athena.mit.edu/user/j/g/jgross/web_scripts/alphabets/results/unreviewed/m5208217318092312045/0/kannada_41_-5208217318092312045.png'
p182
asS'3465289070792018222'
p183
(lp184
S'/afs/athena.mit.edu/user/j/g/jgross/web_scripts/alphabets/results/unreviewed/3465289070792018222/0/kannada_01_3465289070792018222.png'
p185
aS'/afs/athena.mit.edu/user/j/g/jgross/web_scripts/alphabets/results/unreviewed/3465289070792018222/0/kannada_02_3465289070792018222.png'
p186
aS'/afs/athena.mit.edu/user/j/g/jgross/web_scripts/alphabets/results/unreviewed/3465289070792018222/0/kannada_03_3465289070792018222.png'
p187
aS'/afs/athena.mit.edu/user/j/g/jgross/web_scripts/alphabets/results/unreviewed/3465289070792018222/0/kannada_04_3465289070792018222.png'
p188
aS'/afs/athena.mit.edu/user/j/g/jgross/web_scripts/alphabets/results/unreviewed/3465289070792018222/0/kannada_05_3465289070792018222.png'
p189
aS'/afs/athena.mit.edu/user/j/g/jgross/web_scripts/alphabets/results/unreviewed/3465289070792018222/0/kannada_06_3465289070792018222.png'
p190
aS'/afs/athena.mit.edu/user/j/g/jgross/web_scripts/alphabets/results/unreviewed/3465289070792018222/0/kannada_07_3465289070792018222.png'
p191
aS'/afs/athena.mit.edu/user/j/g/jgross/web_scripts/alphabets/results/unreviewed/3465289070792018222/0/kannada_08_3465289070792018222.png'
p192
aS'/afs/athena.mit.edu/user/j/g/jgross/web_scripts/alphabets/results/unreviewed/3465289070792018222/0/kannada_09_3465289070792018222.png'
p193
aS'/afs/athena.mit.edu/user/j/g/jgross/web_scripts/alphabets/results/unreviewed/3465289070792018222/0/kannada_10_3465289070792018222.png'
p194
aS'/afs/athena.mit.edu/user/j/g/jgross/web_scripts/alphabets/results/unreviewed/3465289070792018222/0/kannada_11_3465289070792018222.png'
p195
aS'/afs/athena.mit.edu/user/j/g/jgross/web_scripts/alphabets/results/unreviewed/3465289070792018222/0/kannada_12_3465289070792018222.png'
p196
aS'/afs/athena.mit.edu/user/j/g/jgross/web_scripts/alphabets/results/unreviewed/3465289070792018222/0/kannada_13_3465289070792018222.png'
p197
aS'/afs/athena.mit.edu/user/j/g/jgross/web_scripts/alphabets/results/unreviewed/3465289070792018222/0/kannada_14_3465289070792018222.png'
p198
aS'/afs/athena.mit.edu/user/j/g/jgross/web_scripts/alphabets/results/unreviewed/3465289070792018222/0/kannada_15_3465289070792018222.png'
p199
aS'/afs/athena.mit.edu/user/j/g/jgross/web_scripts/alphabets/results/unreviewed/3465289070792018222/0/kannada_16_3465289070792018222.png'
p200
aS'/afs/athena.mit.edu/user/j/g/jgross/web_scripts/alphabets/results/unreviewed/3465289070792018222/0/kannada_17_3465289070792018222.png'
p201
aS'/afs/athena.mit.edu/user/j/g/jgross/web_scripts/alphabets/results/unreviewed/3465289070792018222/0/kannada_18_3465289070792018222.png'
p202
aS'/afs/athena.mit.edu/user/j/g/jgross/web_scripts/alphabets/results/unreviewed/3465289070792018222/0/kannada_19_3465289070792018222.png'
p203
aS'/afs/athena.mit.edu/user/j/g/jgross/web_scripts/alphabets/results/unreviewed/3465289070792018222/0/kannada_20_3465289070792018222.png'
p204
aS'/afs/athena.mit.edu/user/j/g/jgross/web_scripts/alphabets/results/unreviewed/3465289070792018222/0/kannada_21_3465289070792018222.png'
p205
aS'/afs/athena.mit.edu/user/j/g/jgross/web_scripts/alphabets/results/unreviewed/3465289070792018222/0/kannada_22_3465289070792018222.png'
p206
aS'/afs/athena.mit.edu/user/j/g/jgross/web_scripts/alphabets/results/unreviewed/3465289070792018222/0/kannada_23_3465289070792018222.png'
p207
aS'/afs/athena.mit.edu/user/j/g/jgross/web_scripts/alphabets/results/unreviewed/3465289070792018222/0/kannada_24_3465289070792018222.png'
p208
aS'/afs/athena.mit.edu/user/j/g/jgross/web_scripts/alphabets/results/unreviewed/3465289070792018222/0/kannada_25_3465289070792018222.png'
p209
aS'/afs/athena.mit.edu/user/j/g/jgross/web_scripts/alphabets/results/unreviewed/3465289070792018222/0/kannada_26_3465289070792018222.png'
p210
aS'/afs/athena.mit.edu/user/j/g/jgross/web_scripts/alphabets/results/unreviewed/3465289070792018222/0/kannada_27_3465289070792018222.png'
p211
aS'/afs/athena.mit.edu/user/j/g/jgross/web_scripts/alphabets/results/unreviewed/3465289070792018222/0/kannada_28_3465289070792018222.png'
p212
aS'/afs/athena.mit.edu/user/j/g/jgross/web_scripts/alphabets/results/unreviewed/3465289070792018222/0/kannada_29_3465289070792018222.png'
p213
aS'/afs/athena.mit.edu/user/j/g/jgross/web_scripts/alphabets/results/unreviewed/3465289070792018222/0/kannada_30_3465289070792018222.png'
p214
aS'/afs/athena.mit.edu/user/j/g/jgross/web_scripts/alphabets/results/unreviewed/3465289070792018222/0/kannada_31_3465289070792018222.png'
p215
aS'/afs/athena.mit.edu/user/j/g/jgross/web_scripts/alphabets/results/unreviewed/3465289070792018222/0/kannada_32_3465289070792018222.png'
p216
aS'/afs/athena.mit.edu/user/j/g/jgross/web_scripts/alphabets/results/unreviewed/3465289070792018222/0/kannada_33_3465289070792018222.png'
p217
aS'/afs/athena.mit.edu/user/j/g/jgross/web_scripts/alphabets/results/unreviewed/3465289070792018222/0/kannada_34_3465289070792018222.png'
p218
aS'/afs/athena.mit.edu/user/j/g/jgross/web_scripts/alphabets/results/unreviewed/3465289070792018222/0/kannada_35_3465289070792018222.png'
p219
aS'/afs/athena.mit.edu/user/j/g/jgross/web_scripts/alphabets/results/unreviewed/3465289070792018222/0/kannada_36_3465289070792018222.png'
p220
aS'/afs/athena.mit.edu/user/j/g/jgross/web_scripts/alphabets/results/unreviewed/3465289070792018222/0/kannada_37_3465289070792018222.png'
p221
aS'/afs/athena.mit.edu/user/j/g/jgross/web_scripts/alphabets/results/unreviewed/3465289070792018222/0/kannada_38_3465289070792018222.png'
p222
aS'/afs/athena.mit.edu/user/j/g/jgross/web_scripts/alphabets/results/unreviewed/3465289070792018222/0/kannada_39_3465289070792018222.png'
p223
aS'/afs/athena.mit.edu/user/j/g/jgross/web_scripts/alphabets/results/unreviewed/3465289070792018222/0/kannada_40_3465289070792018222.png'
p224
aS'/afs/athena.mit.edu/user/j/g/jgross/web_scripts/alphabets/results/unreviewed/3465289070792018222/0/kannada_41_3465289070792018222.png'
p225
assS'futurama'
p226
(dp227
S'-5208217318094312048'
p228
(lp229
S'/afs/athena.mit.edu/user/j/g/jgross/web_scripts/alphabets/results/unreviewed/m5208217318094312048/1/futurama_01_-5208217318094312048.png'
p230
aS'/afs/athena.mit.edu/user/j/g/jgross/web_scripts/alphabets/results/unreviewed/m5208217318094312048/1/futurama_02_-5208217318094312048.png'
p231
aS'/afs/athena.mit.edu/user/j/g/jgross/web_scripts/alphabets/results/unreviewed/m5208217318094312048/1/futurama_03_-5208217318094312048.png'
p232
aS'/afs/athena.mit.edu/user/j/g/jgross/web_scripts/alphabets/results/unreviewed/m5208217318094312048/1/futurama_04_-5208217318094312048.png'
p233
aS'/afs/athena.mit.edu/user/j/g/jgross/web_scripts/alphabets/results/unreviewed/m5208217318094312048/1/futurama_05_-5208217318094312048.png'
p234
aS'/afs/athena.mit.edu/user/j/g/jgross/web_scripts/alphabets/results/unreviewed/m5208217318094312048/1/futurama_06_-5208217318094312048.png'
p235
aS'/afs/athena.mit.edu/user/j/g/jgross/web_scripts/alphabets/results/unreviewed/m5208217318094312048/1/futurama_07_-5208217318094312048.png'
p236
aS'/afs/athena.mit.edu/user/j/g/jgross/web_scripts/alphabets/results/unreviewed/m5208217318094312048/1/futurama_08_-5208217318094312048.png'
p237
aS'/afs/athena.mit.edu/user/j/g/jgross/web_scripts/alphabets/results/unreviewed/m5208217318094312048/1/futurama_09_-5208217318094312048.png'
p238
aS'/afs/athena.mit.edu/user/j/g/jgross/web_scripts/alphabets/results/unreviewed/m5208217318094312048/1/futurama_10_-5208217318094312048.png'
p239
aS'/afs/athena.mit.edu/user/j/g/jgross/web_scripts/alphabets/results/unreviewed/m5208217318094312048/1/futurama_11_-5208217318094312048.png'
p240
aS'/afs/athena.mit.edu/user/j/g/jgross/web_scripts/alphabets/results/unreviewed/m5208217318094312048/1/futurama_12_-5208217318094312048.png'
p241
aS'/afs/athena.mit.edu/user/j/g/jgross/web_scripts/alphabets/results/unreviewed/m5208217318094312048/1/futurama_13_-5208217318094312048.png'
p242
aS'/afs/athena.mit.edu/user/j/g/jgross/web_scripts/alphabets/results/unreviewed/m5208217318094312048/1/futurama_14_-5208217318094312048.png'
p243
aS'/afs/athena.mit.edu/user/j/g/jgross/web_scripts/alphabets/results/unreviewed/m5208217318094312048/1/futurama_15_-5208217318094312048.png'
p244
aS'/afs/athena.mit.edu/user/j/g/jgross/web_scripts/alphabets/results/unreviewed/m5208217318094312048/1/futurama_16_-5208217318094312048.png'
p245
aS'/afs/athena.mit.edu/user/j/g/jgross/web_scripts/alphabets/results/unreviewed/m5208217318094312048/1/futurama_17_-5208217318094312048.png'
p246
aS'/afs/athena.mit.edu/user/j/g/jgross/web_scripts/alphabets/results/unreviewed/m5208217318094312048/1/futurama_18_-5208217318094312048.png'
p247
aS'/afs/athena.mit.edu/user/j/g/jgross/web_scripts/alphabets/results/unreviewed/m5208217318094312048/1/futurama_19_-5208217318094312048.png'
p248
aS'/afs/athena.mit.edu/user/j/g/jgross/web_scripts/alphabets/results/unreviewed/m5208217318094312048/1/futurama_20_-5208217318094312048.png'
p249
aS'/afs/athena.mit.edu/user/j/g/jgross/web_scripts/alphabets/results/unreviewed/m5208217318094312048/1/futurama_21_-5208217318094312048.png'
p250
aS'/afs/athena.mit.edu/user/j/g/jgross/web_scripts/alphabets/results/unreviewed/m5208217318094312048/1/futurama_22_-5208217318094312048.png'
p251
aS'/afs/athena.mit.edu/user/j/g/jgross/web_scripts/alphabets/results/unreviewed/m5208217318094312048/1/futurama_23_-5208217318094312048.png'
p252
aS'/afs/athena.mit.edu/user/j/g/jgross/web_scripts/alphabets/results/unreviewed/m5208217318094312048/1/futurama_24_-5208217318094312048.png'
p253
aS'/afs/athena.mit.edu/user/j/g/jgross/web_scripts/alphabets/results/unreviewed/m5208217318094312048/1/futurama_25_-5208217318094312048.png'
p254
aS'/afs/athena.mit.edu/user/j/g/jgross/web_scripts/alphabets/results/unreviewed/m5208217318094312048/1/futurama_26_-5208217318094312048.png'
p255
assS'mongolian'
p256
(dp257
S'-3316387596064225758'
p258
(lp259
S'/afs/athena.mit.edu/user/j/g/jgross/web_scripts/alphabets/results/unreviewed/m3316387596064225758/0/mongolian_01_-3316387596064225758.png'
p260
aS'/afs/athena.mit.edu/user/j/g/jgross/web_scripts/alphabets/results/unreviewed/m3316387596064225758/0/mongolian_02_-3316387596064225758.png'
p261
aS'/afs/athena.mit.edu/user/j/g/jgross/web_scripts/alphabets/results/unreviewed/m3316387596064225758/0/mongolian_03_-3316387596064225758.png'
p262
aS'/afs/athena.mit.edu/user/j/g/jgross/web_scripts/alphabets/results/unreviewed/m3316387596064225758/0/mongolian_04_-3316387596064225758.png'
p263
aS'/afs/athena.mit.edu/user/j/g/jgross/web_scripts/alphabets/results/unreviewed/m3316387596064225758/0/mongolian_05_-3316387596064225758.png'
p264
aS'/afs/athena.mit.edu/user/j/g/jgross/web_scripts/alphabets/results/unreviewed/m3316387596064225758/0/mongolian_06_-3316387596064225758.png'
p265
aS'/afs/athena.mit.edu/user/j/g/jgross/web_scripts/alphabets/results/unreviewed/m3316387596064225758/0/mongolian_07_-3316387596064225758.png'
p266
aS'/afs/athena.mit.edu/user/j/g/jgross/web_scripts/alphabets/results/unreviewed/m3316387596064225758/0/mongolian_08_-3316387596064225758.png'
p267
aS'/afs/athena.mit.edu/user/j/g/jgross/web_scripts/alphabets/results/unreviewed/m3316387596064225758/0/mongolian_09_-3316387596064225758.png'
p268
aS'/afs/athena.mit.edu/user/j/g/jgross/web_scripts/alphabets/results/unreviewed/m3316387596064225758/0/mongolian_10_-3316387596064225758.png'
p269
aS'/afs/athena.mit.edu/user/j/g/jgross/web_scripts/alphabets/results/unreviewed/m3316387596064225758/0/mongolian_11_-3316387596064225758.png'
p270
aS'/afs/athena.mit.edu/user/j/g/jgross/web_scripts/alphabets/results/unreviewed/m3316387596064225758/0/mongolian_12_-3316387596064225758.png'
p271
aS'/afs/athena.mit.edu/user/j/g/jgross/web_scripts/alphabets/results/unreviewed/m3316387596064225758/0/mongolian_13_-3316387596064225758.png'
p272
aS'/afs/athena.mit.edu/user/j/g/jgross/web_scripts/alphabets/results/unreviewed/m3316387596064225758/0/mongolian_14_-3316387596064225758.png'
p273
aS'/afs/athena.mit.edu/user/j/g/jgross/web_scripts/alphabets/results/unreviewed/m3316387596064225758/0/mongolian_15_-3316387596064225758.png'
p274
aS'/afs/athena.mit.edu/user/j/g/jgross/web_scripts/alphabets/results/unreviewed/m3316387596064225758/0/mongolian_16_-3316387596064225758.png'
p275
aS'/afs/athena.mit.edu/user/j/g/jgross/web_scripts/alphabets/results/unreviewed/m3316387596064225758/0/mongolian_17_-3316387596064225758.png'
p276
aS'/afs/athena.mit.edu/user/j/g/jgross/web_scripts/alphabets/results/unreviewed/m3316387596064225758/0/mongolian_18_-3316387596064225758.png'
p277
aS'/afs/athena.mit.edu/user/j/g/jgross/web_scripts/alphabets/results/unreviewed/m3316387596064225758/0/mongolian_19_-3316387596064225758.png'
p278
aS'/afs/athena.mit.edu/user/j/g/jgross/web_scripts/alphabets/results/unreviewed/m3316387596064225758/0/mongolian_20_-3316387596064225758.png'
p279
aS'/afs/athena.mit.edu/user/j/g/jgross/web_scripts/alphabets/results/unreviewed/m3316387596064225758/0/mongolian_21_-3316387596064225758.png'
p280
aS'/afs/athena.mit.edu/user/j/g/jgross/web_scripts/alphabets/results/unreviewed/m3316387596064225758/0/mongolian_22_-3316387596064225758.png'
p281
aS'/afs/athena.mit.edu/user/j/g/jgross/web_scripts/alphabets/results/unreviewed/m3316387596064225758/0/mongolian_23_-3316387596064225758.png'
p282
aS'/afs/athena.mit.edu/user/j/g/jgross/web_scripts/alphabets/results/unreviewed/m3316387596064225758/0/mongolian_24_-3316387596064225758.png'
p283
aS'/afs/athena.mit.edu/user/j/g/jgross/web_scripts/alphabets/results/unreviewed/m3316387596064225758/0/mongolian_25_-3316387596064225758.png'
p284
aS'/afs/athena.mit.edu/user/j/g/jgross/web_scripts/alphabets/results/unreviewed/m3316387596064225758/0/mongolian_26_-3316387596064225758.png'
p285
aS'/afs/athena.mit.edu/user/j/g/jgross/web_scripts/alphabets/results/unreviewed/m3316387596064225758/0/mongolian_27_-3316387596064225758.png'
p286
aS'/afs/athena.mit.edu/user/j/g/jgross/web_scripts/alphabets/results/unreviewed/m3316387596064225758/0/mongolian_28_-3316387596064225758.png'
p287
aS'/afs/athena.mit.edu/user/j/g/jgross/web_scripts/alphabets/results/unreviewed/m3316387596064225758/0/mongolian_29_-3316387596064225758.png'
p288
aS'/afs/athena.mit.edu/user/j/g/jgross/web_scripts/alphabets/results/unreviewed/m3316387596064225758/0/mongolian_30_-3316387596064225758.png'
p289
asS'-5208217318094312047'
p290
(lp291
S'/afs/athena.mit.edu/user/j/g/jgross/web_scripts/alphabets/results/unreviewed/m5208217318094312047/1/mongolian_01_-5208217318094312047.png'
p292
aS'/afs/athena.mit.edu/user/j/g/jgross/web_scripts/alphabets/results/unreviewed/m5208217318094312047/1/mongolian_02_-5208217318094312047.png'
p293
aS'/afs/athena.mit.edu/user/j/g/jgross/web_scripts/alphabets/results/unreviewed/m5208217318094312047/1/mongolian_03_-5208217318094312047.png'
p294
aS'/afs/athena.mit.edu/user/j/g/jgross/web_scripts/alphabets/results/unreviewed/m5208217318094312047/1/mongolian_04_-5208217318094312047.png'
p295
aS'/afs/athena.mit.edu/user/j/g/jgross/web_scripts/alphabets/results/unreviewed/m5208217318094312047/1/mongolian_05_-5208217318094312047.png'
p296
aS'/afs/athena.mit.edu/user/j/g/jgross/web_scripts/alphabets/results/unreviewed/m5208217318094312047/1/mongolian_06_-5208217318094312047.png'
p297
aS'/afs/athena.mit.edu/user/j/g/jgross/web_scripts/alphabets/results/unreviewed/m5208217318094312047/1/mongolian_07_-5208217318094312047.png'
p298
aS'/afs/athena.mit.edu/user/j/g/jgross/web_scripts/alphabets/results/unreviewed/m5208217318094312047/1/mongolian_08_-5208217318094312047.png'
p299
aS'/afs/athena.mit.edu/user/j/g/jgross/web_scripts/alphabets/results/unreviewed/m5208217318094312047/1/mongolian_09_-5208217318094312047.png'
p300
aS'/afs/athena.mit.edu/user/j/g/jgross/web_scripts/alphabets/results/unreviewed/m5208217318094312047/1/mongolian_10_-5208217318094312047.png'
p301
aS'/afs/athena.mit.edu/user/j/g/jgross/web_scripts/alphabets/results/unreviewed/m5208217318094312047/1/mongolian_11_-5208217318094312047.png'
p302
aS'/afs/athena.mit.edu/user/j/g/jgross/web_scripts/alphabets/results/unreviewed/m5208217318094312047/1/mongolian_12_-5208217318094312047.png'
p303
aS'/afs/athena.mit.edu/user/j/g/jgross/web_scripts/alphabets/results/unreviewed/m5208217318094312047/1/mongolian_13_-5208217318094312047.png'
p304
aS'/afs/athena.mit.edu/user/j/g/jgross/web_scripts/alphabets/results/unreviewed/m5208217318094312047/1/mongolian_14_-5208217318094312047.png'
p305
aS'/afs/athena.mit.edu/user/j/g/jgross/web_scripts/alphabets/results/unreviewed/m5208217318094312047/1/mongolian_15_-5208217318094312047.png'
p306
aS'/afs/athena.mit.edu/user/j/g/jgross/web_scripts/alphabets/results/unreviewed/m5208217318094312047/1/mongolian_16_-5208217318094312047.png'
p307
aS'/afs/athena.mit.edu/user/j/g/jgross/web_scripts/alphabets/results/unreviewed/m5208217318094312047/1/mongolian_17_-5208217318094312047.png'
p308
aS'/afs/athena.mit.edu/user/j/g/jgross/web_scripts/alphabets/results/unreviewed/m5208217318094312047/1/mongolian_18_-5208217318094312047.png'
p309
aS'/afs/athena.mit.edu/user/j/g/jgross/web_scripts/alphabets/results/unreviewed/m5208217318094312047/1/mongolian_19_-5208217318094312047.png'
p310
aS'/afs/athena.mit.edu/user/j/g/jgross/web_scripts/alphabets/results/unreviewed/m5208217318094312047/1/mongolian_20_-5208217318094312047.png'
p311
aS'/afs/athena.mit.edu/user/j/g/jgross/web_scripts/alphabets/results/unreviewed/m5208217318094312047/1/mongolian_21_-5208217318094312047.png'
p312
aS'/afs/athena.mit.edu/user/j/g/jgross/web_scripts/alphabets/results/unreviewed/m5208217318094312047/1/mongolian_22_-5208217318094312047.png'
p313
aS'/afs/athena.mit.edu/user/j/g/jgross/web_scripts/alphabets/results/unreviewed/m5208217318094312047/1/mongolian_23_-5208217318094312047.png'
p314
aS'/afs/athena.mit.edu/user/j/g/jgross/web_scripts/alphabets/results/unreviewed/m5208217318094312047/1/mongolian_24_-5208217318094312047.png'
p315
aS'/afs/athena.mit.edu/user/j/g/jgross/web_scripts/alphabets/results/unreviewed/m5208217318094312047/1/mongolian_25_-5208217318094312047.png'
p316
aS'/afs/athena.mit.edu/user/j/g/jgross/web_scripts/alphabets/results/unreviewed/m5208217318094312047/1/mongolian_26_-5208217318094312047.png'
p317
aS'/afs/athena.mit.edu/user/j/g/jgross/web_scripts/alphabets/results/unreviewed/m5208217318094312047/1/mongolian_27_-5208217318094312047.png'
p318
aS'/afs/athena.mit.edu/user/j/g/jgross/web_scripts/alphabets/results/unreviewed/m5208217318094312047/1/mongolian_28_-5208217318094312047.png'
p319
aS'/afs/athena.mit.edu/user/j/g/jgross/web_scripts/alphabets/results/unreviewed/m5208217318094312047/1/mongolian_29_-5208217318094312047.png'
p320
aS'/afs/athena.mit.edu/user/j/g/jgross/web_scripts/alphabets/results/unreviewed/m5208217318094312047/1/mongolian_30_-5208217318094312047.png'
p321
assS'atlantean'
p322
(dp323
S'7618158960484983733'
p324
(lp325
S'/afs/athena.mit.edu/user/j/g/jgross/web_scripts/alphabets/results/unreviewed/7618158960484983733/0/atlantean_01_7618158960484983733.png'
p326
aS'/afs/athena.mit.edu/user/j/g/jgross/web_scripts/alphabets/results/unreviewed/7618158960484983733/0/atlantean_02_7618158960484983733.png'
p327
aS'/afs/athena.mit.edu/user/j/g/jgross/web_scripts/alphabets/results/unreviewed/7618158960484983733/0/atlantean_03_7618158960484983733.png'
p328
aS'/afs/athena.mit.edu/user/j/g/jgross/web_scripts/alphabets/results/unreviewed/7618158960484983733/0/atlantean_04_7618158960484983733.png'
p329
aS'/afs/athena.mit.edu/user/j/g/jgross/web_scripts/alphabets/results/unreviewed/7618158960484983733/0/atlantean_05_7618158960484983733.png'
p330
aS'/afs/athena.mit.edu/user/j/g/jgross/web_scripts/alphabets/results/unreviewed/7618158960484983733/0/atlantean_06_7618158960484983733.png'
p331
aS'/afs/athena.mit.edu/user/j/g/jgross/web_scripts/alphabets/results/unreviewed/7618158960484983733/0/atlantean_07_7618158960484983733.png'
p332
aS'/afs/athena.mit.edu/user/j/g/jgross/web_scripts/alphabets/results/unreviewed/7618158960484983733/0/atlantean_08_7618158960484983733.png'
p333
aS'/afs/athena.mit.edu/user/j/g/jgross/web_scripts/alphabets/results/unreviewed/7618158960484983733/0/atlantean_09_7618158960484983733.png'
p334
aS'/afs/athena.mit.edu/user/j/g/jgross/web_scripts/alphabets/results/unreviewed/7618158960484983733/0/atlantean_10_7618158960484983733.png'
p335
aS'/afs/athena.mit.edu/user/j/g/jgross/web_scripts/alphabets/results/unreviewed/7618158960484983733/0/atlantean_11_7618158960484983733.png'
p336
aS'/afs/athena.mit.edu/user/j/g/jgross/web_scripts/alphabets/results/unreviewed/7618158960484983733/0/atlantean_12_7618158960484983733.png'
p337
aS'/afs/athena.mit.edu/user/j/g/jgross/web_scripts/alphabets/results/unreviewed/7618158960484983733/0/atlantean_13_7618158960484983733.png'
p338
aS'/afs/athena.mit.edu/user/j/g/jgross/web_scripts/alphabets/results/unreviewed/7618158960484983733/0/atlantean_14_7618158960484983733.png'
p339
aS'/afs/athena.mit.edu/user/j/g/jgross/web_scripts/alphabets/results/unreviewed/7618158960484983733/0/atlantean_15_7618158960484983733.png'
p340
aS'/afs/athena.mit.edu/user/j/g/jgross/web_scripts/alphabets/results/unreviewed/7618158960484983733/0/atlantean_16_7618158960484983733.png'
p341
aS'/afs/athena.mit.edu/user/j/g/jgross/web_scripts/alphabets/results/unreviewed/7618158960484983733/0/atlantean_17_7618158960484983733.png'
p342
aS'/afs/athena.mit.edu/user/j/g/jgross/web_scripts/alphabets/results/unreviewed/7618158960484983733/0/atlantean_18_7618158960484983733.png'
p343
aS'/afs/athena.mit.edu/user/j/g/jgross/web_scripts/alphabets/results/unreviewed/7618158960484983733/0/atlantean_19_7618158960484983733.png'
p344
aS'/afs/athena.mit.edu/user/j/g/jgross/web_scripts/alphabets/results/unreviewed/7618158960484983733/0/atlantean_20_7618158960484983733.png'
p345
aS'/afs/athena.mit.edu/user/j/g/jgross/web_scripts/alphabets/results/unreviewed/7618158960484983733/0/atlantean_21_7618158960484983733.png'
p346
aS'/afs/athena.mit.edu/user/j/g/jgross/web_scripts/alphabets/results/unreviewed/7618158960484983733/0/atlantean_22_7618158960484983733.png'
p347
aS'/afs/athena.mit.edu/user/j/g/jgross/web_scripts/alphabets/results/unreviewed/7618158960484983733/0/atlantean_23_7618158960484983733.png'
p348
aS'/afs/athena.mit.edu/user/j/g/jgross/web_scripts/alphabets/results/unreviewed/7618158960484983733/0/atlantean_24_7618158960484983733.png'
p349
aS'/afs/athena.mit.edu/user/j/g/jgross/web_scripts/alphabets/results/unreviewed/7618158960484983733/0/atlantean_25_7618158960484983733.png'
p350
aS'/afs/athena.mit.edu/user/j/g/jgross/web_scripts/alphabets/results/unreviewed/7618158960484983733/0/atlantean_26_7618158960484983733.png'
p351
assS'aliaric'
p352
(dp353
S'8476703804626495704'
p354
(lp355
S'/afs/athena.mit.edu/user/j/g/jgross/web_scripts/alphabets/results/unreviewed/8476703804626495704/0/aliaric_01_8476703804626495704.png'
p356
aS'/afs/athena.mit.edu/user/j/g/jgross/web_scripts/alphabets/results/unreviewed/8476703804626495704/0/aliaric_02_8476703804626495704.png'
p357
aS'/afs/athena.mit.edu/user/j/g/jgross/web_scripts/alphabets/results/unreviewed/8476703804626495704/0/aliaric_03_8476703804626495704.png'
p358
aS'/afs/athena.mit.edu/user/j/g/jgross/web_scripts/alphabets/results/unreviewed/8476703804626495704/0/aliaric_04_8476703804626495704.png'
p359
aS'/afs/athena.mit.edu/user/j/g/jgross/web_scripts/alphabets/results/unreviewed/8476703804626495704/0/aliaric_05_8476703804626495704.png'
p360
aS'/afs/athena.mit.edu/user/j/g/jgross/web_scripts/alphabets/results/unreviewed/8476703804626495704/0/aliaric_06_8476703804626495704.png'
p361
aS'/afs/athena.mit.edu/user/j/g/jgross/web_scripts/alphabets/results/unreviewed/8476703804626495704/0/aliaric_07_8476703804626495704.png'
p362
aS'/afs/athena.mit.edu/user/j/g/jgross/web_scripts/alphabets/results/unreviewed/8476703804626495704/0/aliaric_08_8476703804626495704.png'
p363
aS'/afs/athena.mit.edu/user/j/g/jgross/web_scripts/alphabets/results/unreviewed/8476703804626495704/0/aliaric_09_8476703804626495704.png'
p364
aS'/afs/athena.mit.edu/user/j/g/jgross/web_scripts/alphabets/results/unreviewed/8476703804626495704/0/aliaric_10_8476703804626495704.png'
p365
aS'/afs/athena.mit.edu/user/j/g/jgross/web_scripts/alphabets/results/unreviewed/8476703804626495704/0/aliaric_11_8476703804626495704.png'
p366
aS'/afs/athena.mit.edu/user/j/g/jgross/web_scripts/alphabets/results/unreviewed/8476703804626495704/0/aliaric_12_8476703804626495704.png'
p367
aS'/afs/athena.mit.edu/user/j/g/jgross/web_scripts/alphabets/results/unreviewed/8476703804626495704/0/aliaric_13_8476703804626495704.png'
p368
aS'/afs/athena.mit.edu/user/j/g/jgross/web_scripts/alphabets/results/unreviewed/8476703804626495704/0/aliaric_14_8476703804626495704.png'
p369
aS'/afs/athena.mit.edu/user/j/g/jgross/web_scripts/alphabets/results/unreviewed/8476703804626495704/0/aliaric_15_8476703804626495704.png'
p370
aS'/afs/athena.mit.edu/user/j/g/jgross/web_scripts/alphabets/results/unreviewed/8476703804626495704/0/aliaric_16_8476703804626495704.png'
p371
aS'/afs/athena.mit.edu/user/j/g/jgross/web_scripts/alphabets/results/unreviewed/8476703804626495704/0/aliaric_17_8476703804626495704.png'
p372
aS'/afs/athena.mit.edu/user/j/g/jgross/web_scripts/alphabets/results/unreviewed/8476703804626495704/0/aliaric_18_8476703804626495704.png'
p373
aS'/afs/athena.mit.edu/user/j/g/jgross/web_scripts/alphabets/results/unreviewed/8476703804626495704/0/aliaric_19_8476703804626495704.png'
p374
aS'/afs/athena.mit.edu/user/j/g/jgross/web_scripts/alphabets/results/unreviewed/8476703804626495704/0/aliaric_20_8476703804626495704.png'
p375
aS'/afs/athena.mit.edu/user/j/g/jgross/web_scripts/alphabets/results/unreviewed/8476703804626495704/0/aliaric_21_8476703804626495704.png'
p376
assS'cyrillic'
p377
(dp378
S'133880637761173871'
p379
(lp380
S'/afs/athena.mit.edu/user/j/g/jgross/web_scripts/alphabets/results/unreviewed/133880637761173871/3/cyrillic_01_133880637761173871.png'
p381
aS'/afs/athena.mit.edu/user/j/g/jgross/web_scripts/alphabets/results/unreviewed/133880637761173871/3/cyrillic_02_133880637761173871.png'
p382
aS'/afs/athena.mit.edu/user/j/g/jgross/web_scripts/alphabets/results/unreviewed/133880637761173871/3/cyrillic_03_133880637761173871.png'
p383
aS'/afs/athena.mit.edu/user/j/g/jgross/web_scripts/alphabets/results/unreviewed/133880637761173871/3/cyrillic_04_133880637761173871.png'
p384
aS'/afs/athena.mit.edu/user/j/g/jgross/web_scripts/alphabets/results/unreviewed/133880637761173871/3/cyrillic_05_133880637761173871.png'
p385
aS'/afs/athena.mit.edu/user/j/g/jgross/web_scripts/alphabets/results/unreviewed/133880637761173871/3/cyrillic_06_133880637761173871.png'
p386
aS'/afs/athena.mit.edu/user/j/g/jgross/web_scripts/alphabets/results/unreviewed/133880637761173871/3/cyrillic_07_133880637761173871.png'
p387
aS'/afs/athena.mit.edu/user/j/g/jgross/web_scripts/alphabets/results/unreviewed/133880637761173871/3/cyrillic_08_133880637761173871.png'
p388
aS'/afs/athena.mit.edu/user/j/g/jgross/web_scripts/alphabets/results/unreviewed/133880637761173871/3/cyrillic_09_133880637761173871.png'
p389
aS'/afs/athena.mit.edu/user/j/g/jgross/web_scripts/alphabets/results/unreviewed/133880637761173871/3/cyrillic_10_133880637761173871.png'
p390
aS'/afs/athena.mit.edu/user/j/g/jgross/web_scripts/alphabets/results/unreviewed/133880637761173871/3/cyrillic_11_133880637761173871.png'
p391
aS'/afs/athena.mit.edu/user/j/g/jgross/web_scripts/alphabets/results/unreviewed/133880637761173871/3/cyrillic_12_133880637761173871.png'
p392
aS'/afs/athena.mit.edu/user/j/g/jgross/web_scripts/alphabets/results/unreviewed/133880637761173871/3/cyrillic_13_133880637761173871.png'
p393
aS'/afs/athena.mit.edu/user/j/g/jgross/web_scripts/alphabets/results/unreviewed/133880637761173871/3/cyrillic_14_133880637761173871.png'
p394
aS'/afs/athena.mit.edu/user/j/g/jgross/web_scripts/alphabets/results/unreviewed/133880637761173871/3/cyrillic_15_133880637761173871.png'
p395
aS'/afs/athena.mit.edu/user/j/g/jgross/web_scripts/alphabets/results/unreviewed/133880637761173871/3/cyrillic_16_133880637761173871.png'
p396
aS'/afs/athena.mit.edu/user/j/g/jgross/web_scripts/alphabets/results/unreviewed/133880637761173871/3/cyrillic_17_133880637761173871.png'
p397
aS'/afs/athena.mit.edu/user/j/g/jgross/web_scripts/alphabets/results/unreviewed/133880637761173871/3/cyrillic_18_133880637761173871.png'
p398
aS'/afs/athena.mit.edu/user/j/g/jgross/web_scripts/alphabets/results/unreviewed/133880637761173871/3/cyrillic_19_133880637761173871.png'
p399
aS'/afs/athena.mit.edu/user/j/g/jgross/web_scripts/alphabets/results/unreviewed/133880637761173871/3/cyrillic_20_133880637761173871.png'
p400
aS'/afs/athena.mit.edu/user/j/g/jgross/web_scripts/alphabets/results/unreviewed/133880637761173871/3/cyrillic_21_133880637761173871.png'
p401
aS'/afs/athena.mit.edu/user/j/g/jgross/web_scripts/alphabets/results/unreviewed/133880637761173871/3/cyrillic_22_133880637761173871.png'
p402
aS'/afs/athena.mit.edu/user/j/g/jgross/web_scripts/alphabets/results/unreviewed/133880637761173871/3/cyrillic_23_133880637761173871.png'
p403
aS'/afs/athena.mit.edu/user/j/g/jgross/web_scripts/alphabets/results/unreviewed/133880637761173871/3/cyrillic_24_133880637761173871.png'
p404
aS'/afs/athena.mit.edu/user/j/g/jgross/web_scripts/alphabets/results/unreviewed/133880637761173871/3/cyrillic_25_133880637761173871.png'
p405
aS'/afs/athena.mit.edu/user/j/g/jgross/web_scripts/alphabets/results/unreviewed/133880637761173871/3/cyrillic_26_133880637761173871.png'
p406
aS'/afs/athena.mit.edu/user/j/g/jgross/web_scripts/alphabets/results/unreviewed/133880637761173871/3/cyrillic_27_133880637761173871.png'
p407
aS'/afs/athena.mit.edu/user/j/g/jgross/web_scripts/alphabets/results/unreviewed/133880637761173871/3/cyrillic_28_133880637761173871.png'
p408
aS'/afs/athena.mit.edu/user/j/g/jgross/web_scripts/alphabets/results/unreviewed/133880637761173871/3/cyrillic_29_133880637761173871.png'
p409
aS'/afs/athena.mit.edu/user/j/g/jgross/web_scripts/alphabets/results/unreviewed/133880637761173871/3/cyrillic_30_133880637761173871.png'
p410
aS'/afs/athena.mit.edu/user/j/g/jgross/web_scripts/alphabets/results/unreviewed/133880637761173871/3/cyrillic_31_133880637761173871.png'
p411
aS'/afs/athena.mit.edu/user/j/g/jgross/web_scripts/alphabets/results/unreviewed/133880637761173871/3/cyrillic_32_133880637761173871.png'
p412
aS'/afs/athena.mit.edu/user/j/g/jgross/web_scripts/alphabets/results/unreviewed/133880637761173871/3/cyrillic_33_133880637761173871.png'
p413
assS'ge_ez'
p414
(dp415
S'-6933527752756115883'
p416
(lp417
S'/afs/athena.mit.edu/user/j/g/jgross/web_scripts/alphabets/results/unreviewed/m6933527752756115883/2/ge_ez_01_-6933527752756115883.png'
p418
aS'/afs/athena.mit.edu/user/j/g/jgross/web_scripts/alphabets/results/unreviewed/m6933527752756115883/2/ge_ez_02_-6933527752756115883.png'
p419
aS'/afs/athena.mit.edu/user/j/g/jgross/web_scripts/alphabets/results/unreviewed/m6933527752756115883/2/ge_ez_03_-6933527752756115883.png'
p420
aS'/afs/athena.mit.edu/user/j/g/jgross/web_scripts/alphabets/results/unreviewed/m6933527752756115883/2/ge_ez_04_-6933527752756115883.png'
p421
aS'/afs/athena.mit.edu/user/j/g/jgross/web_scripts/alphabets/results/unreviewed/m6933527752756115883/2/ge_ez_05_-6933527752756115883.png'
p422
aS'/afs/athena.mit.edu/user/j/g/jgross/web_scripts/alphabets/results/unreviewed/m6933527752756115883/2/ge_ez_06_-6933527752756115883.png'
p423
aS'/afs/athena.mit.edu/user/j/g/jgross/web_scripts/alphabets/results/unreviewed/m6933527752756115883/2/ge_ez_07_-6933527752756115883.png'
p424
aS'/afs/athena.mit.edu/user/j/g/jgross/web_scripts/alphabets/results/unreviewed/m6933527752756115883/2/ge_ez_08_-6933527752756115883.png'
p425
aS'/afs/athena.mit.edu/user/j/g/jgross/web_scripts/alphabets/results/unreviewed/m6933527752756115883/2/ge_ez_09_-6933527752756115883.png'
p426
aS'/afs/athena.mit.edu/user/j/g/jgross/web_scripts/alphabets/results/unreviewed/m6933527752756115883/2/ge_ez_10_-6933527752756115883.png'
p427
aS'/afs/athena.mit.edu/user/j/g/jgross/web_scripts/alphabets/results/unreviewed/m6933527752756115883/2/ge_ez_11_-6933527752756115883.png'
p428
aS'/afs/athena.mit.edu/user/j/g/jgross/web_scripts/alphabets/results/unreviewed/m6933527752756115883/2/ge_ez_12_-6933527752756115883.png'
p429
aS'/afs/athena.mit.edu/user/j/g/jgross/web_scripts/alphabets/results/unreviewed/m6933527752756115883/2/ge_ez_13_-6933527752756115883.png'
p430
aS'/afs/athena.mit.edu/user/j/g/jgross/web_scripts/alphabets/results/unreviewed/m6933527752756115883/2/ge_ez_14_-6933527752756115883.png'
p431
aS'/afs/athena.mit.edu/user/j/g/jgross/web_scripts/alphabets/results/unreviewed/m6933527752756115883/2/ge_ez_15_-6933527752756115883.png'
p432
aS'/afs/athena.mit.edu/user/j/g/jgross/web_scripts/alphabets/results/unreviewed/m6933527752756115883/2/ge_ez_16_-6933527752756115883.png'
p433
aS'/afs/athena.mit.edu/user/j/g/jgross/web_scripts/alphabets/results/unreviewed/m6933527752756115883/2/ge_ez_17_-6933527752756115883.png'
p434
aS'/afs/athena.mit.edu/user/j/g/jgross/web_scripts/alphabets/results/unreviewed/m6933527752756115883/2/ge_ez_18_-6933527752756115883.png'
p435
aS'/afs/athena.mit.edu/user/j/g/jgross/web_scripts/alphabets/results/unreviewed/m6933527752756115883/2/ge_ez_19_-6933527752756115883.png'
p436
aS'/afs/athena.mit.edu/user/j/g/jgross/web_scripts/alphabets/results/unreviewed/m6933527752756115883/2/ge_ez_20_-6933527752756115883.png'
p437
aS'/afs/athena.mit.edu/user/j/g/jgross/web_scripts/alphabets/results/unreviewed/m6933527752756115883/2/ge_ez_21_-6933527752756115883.png'
p438
aS'/afs/athena.mit.edu/user/j/g/jgross/web_scripts/alphabets/results/unreviewed/m6933527752756115883/2/ge_ez_22_-6933527752756115883.png'
p439
aS'/afs/athena.mit.edu/user/j/g/jgross/web_scripts/alphabets/results/unreviewed/m6933527752756115883/2/ge_ez_23_-6933527752756115883.png'
p440
aS'/afs/athena.mit.edu/user/j/g/jgross/web_scripts/alphabets/results/unreviewed/m6933527752756115883/2/ge_ez_24_-6933527752756115883.png'
p441
aS'/afs/athena.mit.edu/user/j/g/jgross/web_scripts/alphabets/results/unreviewed/m6933527752756115883/2/ge_ez_25_-6933527752756115883.png'
p442
aS'/afs/athena.mit.edu/user/j/g/jgross/web_scripts/alphabets/results/unreviewed/m6933527752756115883/2/ge_ez_26_-6933527752756115883.png'
p443
assS'gujarati'
p444
(dp445
S'-5208217318093312035'
p446
(lp447
S'/afs/athena.mit.edu/user/j/g/jgross/web_scripts/alphabets/results/unreviewed/m5208217318093312035/2/gujarati_01_-5208217318093312035.png'
p448
aS'/afs/athena.mit.edu/user/j/g/jgross/web_scripts/alphabets/results/unreviewed/m5208217318093312035/2/gujarati_02_-5208217318093312035.png'
p449
aS'/afs/athena.mit.edu/user/j/g/jgross/web_scripts/alphabets/results/unreviewed/m5208217318093312035/2/gujarati_03_-5208217318093312035.png'
p450
aS'/afs/athena.mit.edu/user/j/g/jgross/web_scripts/alphabets/results/unreviewed/m5208217318093312035/2/gujarati_04_-5208217318093312035.png'
p451
aS'/afs/athena.mit.edu/user/j/g/jgross/web_scripts/alphabets/results/unreviewed/m5208217318093312035/2/gujarati_05_-5208217318093312035.png'
p452
aS'/afs/athena.mit.edu/user/j/g/jgross/web_scripts/alphabets/results/unreviewed/m5208217318093312035/2/gujarati_06_-5208217318093312035.png'
p453
aS'/afs/athena.mit.edu/user/j/g/jgross/web_scripts/alphabets/results/unreviewed/m5208217318093312035/2/gujarati_07_-5208217318093312035.png'
p454
aS'/afs/athena.mit.edu/user/j/g/jgross/web_scripts/alphabets/results/unreviewed/m5208217318093312035/2/gujarati_08_-5208217318093312035.png'
p455
aS'/afs/athena.mit.edu/user/j/g/jgross/web_scripts/alphabets/results/unreviewed/m5208217318093312035/2/gujarati_09_-5208217318093312035.png'
p456
aS'/afs/athena.mit.edu/user/j/g/jgross/web_scripts/alphabets/results/unreviewed/m5208217318093312035/2/gujarati_10_-5208217318093312035.png'
p457
aS'/afs/athena.mit.edu/user/j/g/jgross/web_scripts/alphabets/results/unreviewed/m5208217318093312035/2/gujarati_11_-5208217318093312035.png'
p458
aS'/afs/athena.mit.edu/user/j/g/jgross/web_scripts/alphabets/results/unreviewed/m5208217318093312035/2/gujarati_12_-5208217318093312035.png'
p459
aS'/afs/athena.mit.edu/user/j/g/jgross/web_scripts/alphabets/results/unreviewed/m5208217318093312035/2/gujarati_13_-5208217318093312035.png'
p460
aS'/afs/athena.mit.edu/user/j/g/jgross/web_scripts/alphabets/results/unreviewed/m5208217318093312035/2/gujarati_14_-5208217318093312035.png'
p461
aS'/afs/athena.mit.edu/user/j/g/jgross/web_scripts/alphabets/results/unreviewed/m5208217318093312035/2/gujarati_15_-5208217318093312035.png'
p462
aS'/afs/athena.mit.edu/user/j/g/jgross/web_scripts/alphabets/results/unreviewed/m5208217318093312035/2/gujarati_16_-5208217318093312035.png'
p463
aS'/afs/athena.mit.edu/user/j/g/jgross/web_scripts/alphabets/results/unreviewed/m5208217318093312035/2/gujarati_17_-5208217318093312035.png'
p464
aS'/afs/athena.mit.edu/user/j/g/jgross/web_scripts/alphabets/results/unreviewed/m5208217318093312035/2/gujarati_18_-5208217318093312035.png'
p465
aS'/afs/athena.mit.edu/user/j/g/jgross/web_scripts/alphabets/results/unreviewed/m5208217318093312035/2/gujarati_19_-5208217318093312035.png'
p466
aS'/afs/athena.mit.edu/user/j/g/jgross/web_scripts/alphabets/results/unreviewed/m5208217318093312035/2/gujarati_20_-5208217318093312035.png'
p467
aS'/afs/athena.mit.edu/user/j/g/jgross/web_scripts/alphabets/results/unreviewed/m5208217318093312035/2/gujarati_21_-5208217318093312035.png'
p468
aS'/afs/athena.mit.edu/user/j/g/jgross/web_scripts/alphabets/results/unreviewed/m5208217318093312035/2/gujarati_22_-5208217318093312035.png'
p469
aS'/afs/athena.mit.edu/user/j/g/jgross/web_scripts/alphabets/results/unreviewed/m5208217318093312035/2/gujarati_23_-5208217318093312035.png'
p470
aS'/afs/athena.mit.edu/user/j/g/jgross/web_scripts/alphabets/results/unreviewed/m5208217318093312035/2/gujarati_24_-5208217318093312035.png'
p471
aS'/afs/athena.mit.edu/user/j/g/jgross/web_scripts/alphabets/results/unreviewed/m5208217318093312035/2/gujarati_25_-5208217318093312035.png'
p472
aS'/afs/athena.mit.edu/user/j/g/jgross/web_scripts/alphabets/results/unreviewed/m5208217318093312035/2/gujarati_26_-5208217318093312035.png'
p473
aS'/afs/athena.mit.edu/user/j/g/jgross/web_scripts/alphabets/results/unreviewed/m5208217318093312035/2/gujarati_27_-5208217318093312035.png'
p474
aS'/afs/athena.mit.edu/user/j/g/jgross/web_scripts/alphabets/results/unreviewed/m5208217318093312035/2/gujarati_28_-5208217318093312035.png'
p475
aS'/afs/athena.mit.edu/user/j/g/jgross/web_scripts/alphabets/results/unreviewed/m5208217318093312035/2/gujarati_29_-5208217318093312035.png'
p476
aS'/afs/athena.mit.edu/user/j/g/jgross/web_scripts/alphabets/results/unreviewed/m5208217318093312035/2/gujarati_30_-5208217318093312035.png'
p477
aS'/afs/athena.mit.edu/user/j/g/jgross/web_scripts/alphabets/results/unreviewed/m5208217318093312035/2/gujarati_31_-5208217318093312035.png'
p478
aS'/afs/athena.mit.edu/user/j/g/jgross/web_scripts/alphabets/results/unreviewed/m5208217318093312035/2/gujarati_32_-5208217318093312035.png'
p479
aS'/afs/athena.mit.edu/user/j/g/jgross/web_scripts/alphabets/results/unreviewed/m5208217318093312035/2/gujarati_33_-5208217318093312035.png'
p480
aS'/afs/athena.mit.edu/user/j/g/jgross/web_scripts/alphabets/results/unreviewed/m5208217318093312035/2/gujarati_34_-5208217318093312035.png'
p481
aS'/afs/athena.mit.edu/user/j/g/jgross/web_scripts/alphabets/results/unreviewed/m5208217318093312035/2/gujarati_35_-5208217318093312035.png'
p482
aS'/afs/athena.mit.edu/user/j/g/jgross/web_scripts/alphabets/results/unreviewed/m5208217318093312035/2/gujarati_36_-5208217318093312035.png'
p483
aS'/afs/athena.mit.edu/user/j/g/jgross/web_scripts/alphabets/results/unreviewed/m5208217318093312035/2/gujarati_37_-5208217318093312035.png'
p484
aS'/afs/athena.mit.edu/user/j/g/jgross/web_scripts/alphabets/results/unreviewed/m5208217318093312035/2/gujarati_38_-5208217318093312035.png'
p485
aS'/afs/athena.mit.edu/user/j/g/jgross/web_scripts/alphabets/results/unreviewed/m5208217318093312035/2/gujarati_39_-5208217318093312035.png'
p486
aS'/afs/athena.mit.edu/user/j/g/jgross/web_scripts/alphabets/results/unreviewed/m5208217318093312035/2/gujarati_40_-5208217318093312035.png'
p487
aS'/afs/athena.mit.edu/user/j/g/jgross/web_scripts/alphabets/results/unreviewed/m5208217318093312035/2/gujarati_41_-5208217318093312035.png'
p488
aS'/afs/athena.mit.edu/user/j/g/jgross/web_scripts/alphabets/results/unreviewed/m5208217318093312035/2/gujarati_42_-5208217318093312035.png'
p489
aS'/afs/athena.mit.edu/user/j/g/jgross/web_scripts/alphabets/results/unreviewed/m5208217318093312035/2/gujarati_43_-5208217318093312035.png'
p490
aS'/afs/athena.mit.edu/user/j/g/jgross/web_scripts/alphabets/results/unreviewed/m5208217318093312035/2/gujarati_44_-5208217318093312035.png'
p491
aS'/afs/athena.mit.edu/user/j/g/jgross/web_scripts/alphabets/results/unreviewed/m5208217318093312035/2/gujarati_45_-5208217318093312035.png'
p492
aS'/afs/athena.mit.edu/user/j/g/jgross/web_scripts/alphabets/results/unreviewed/m5208217318093312035/2/gujarati_46_-5208217318093312035.png'
p493
aS'/afs/athena.mit.edu/user/j/g/jgross/web_scripts/alphabets/results/unreviewed/m5208217318093312035/2/gujarati_47_-5208217318093312035.png'
p494
aS'/afs/athena.mit.edu/user/j/g/jgross/web_scripts/alphabets/results/unreviewed/m5208217318093312035/2/gujarati_48_-5208217318093312035.png'
p495
assS'vertical_a'
p496
(dp497
S'1528635838033328056'
p498
(lp499
S'/afs/athena.mit.edu/user/j/g/jgross/web_scripts/alphabets/results/unreviewed/1528635838033328056/0/vertical_a_01_1528635838033328056.png'
p500
aS'/afs/athena.mit.edu/user/j/g/jgross/web_scripts/alphabets/results/unreviewed/1528635838033328056/0/vertical_a_02_1528635838033328056.png'
p501
aS'/afs/athena.mit.edu/user/j/g/jgross/web_scripts/alphabets/results/unreviewed/1528635838033328056/0/vertical_a_03_1528635838033328056.png'
p502
aS'/afs/athena.mit.edu/user/j/g/jgross/web_scripts/alphabets/results/unreviewed/1528635838033328056/0/vertical_a_04_1528635838033328056.png'
p503
aS'/afs/athena.mit.edu/user/j/g/jgross/web_scripts/alphabets/results/unreviewed/1528635838033328056/0/vertical_a_05_1528635838033328056.png'
p504
aS'/afs/athena.mit.edu/user/j/g/jgross/web_scripts/alphabets/results/unreviewed/1528635838033328056/0/vertical_a_06_1528635838033328056.png'
p505
aS'/afs/athena.mit.edu/user/j/g/jgross/web_scripts/alphabets/results/unreviewed/1528635838033328056/0/vertical_a_07_1528635838033328056.png'
p506
aS'/afs/athena.mit.edu/user/j/g/jgross/web_scripts/alphabets/results/unreviewed/1528635838033328056/0/vertical_a_08_1528635838033328056.png'
p507
aS'/afs/athena.mit.edu/user/j/g/jgross/web_scripts/alphabets/results/unreviewed/1528635838033328056/0/vertical_a_09_1528635838033328056.png'
p508
aS'/afs/athena.mit.edu/user/j/g/jgross/web_scripts/alphabets/results/unreviewed/1528635838033328056/0/vertical_a_10_1528635838033328056.png'
p509
aS'/afs/athena.mit.edu/user/j/g/jgross/web_scripts/alphabets/results/unreviewed/1528635838033328056/0/vertical_a_11_1528635838033328056.png'
p510
aS'/afs/athena.mit.edu/user/j/g/jgross/web_scripts/alphabets/results/unreviewed/1528635838033328056/0/vertical_a_12_1528635838033328056.png'
p511
aS'/afs/athena.mit.edu/user/j/g/jgross/web_scripts/alphabets/results/unreviewed/1528635838033328056/0/vertical_a_13_1528635838033328056.png'
p512
aS'/afs/athena.mit.edu/user/j/g/jgross/web_scripts/alphabets/results/unreviewed/1528635838033328056/0/vertical_a_14_1528635838033328056.png'
p513
aS'/afs/athena.mit.edu/user/j/g/jgross/web_scripts/alphabets/results/unreviewed/1528635838033328056/0/vertical_a_15_1528635838033328056.png'
p514
aS'/afs/athena.mit.edu/user/j/g/jgross/web_scripts/alphabets/results/unreviewed/1528635838033328056/0/vertical_a_16_1528635838033328056.png'
p515
aS'/afs/athena.mit.edu/user/j/g/jgross/web_scripts/alphabets/results/unreviewed/1528635838033328056/0/vertical_a_17_1528635838033328056.png'
p516
aS'/afs/athena.mit.edu/user/j/g/jgross/web_scripts/alphabets/results/unreviewed/1528635838033328056/0/vertical_a_18_1528635838033328056.png'
p517
aS'/afs/athena.mit.edu/user/j/g/jgross/web_scripts/alphabets/results/unreviewed/1528635838033328056/0/vertical_a_19_1528635838033328056.png'
p518
aS'/afs/athena.mit.edu/user/j/g/jgross/web_scripts/alphabets/results/unreviewed/1528635838033328056/0/vertical_a_20_1528635838033328056.png'
p519
aS'/afs/athena.mit.edu/user/j/g/jgross/web_scripts/alphabets/results/unreviewed/1528635838033328056/0/vertical_a_21_1528635838033328056.png'
p520
aS'/afs/athena.mit.edu/user/j/g/jgross/web_scripts/alphabets/results/unreviewed/1528635838033328056/0/vertical_a_22_1528635838033328056.png'
p521
aS'/afs/athena.mit.edu/user/j/g/jgross/web_scripts/alphabets/results/unreviewed/1528635838033328056/0/vertical_a_23_1528635838033328056.png'
p522
aS'/afs/athena.mit.edu/user/j/g/jgross/web_scripts/alphabets/results/unreviewed/1528635838033328056/0/vertical_a_24_1528635838033328056.png'
p523
aS'/afs/athena.mit.edu/user/j/g/jgross/web_scripts/alphabets/results/unreviewed/1528635838033328056/0/vertical_a_25_1528635838033328056.png'
p524
aS'/afs/athena.mit.edu/user/j/g/jgross/web_scripts/alphabets/results/unreviewed/1528635838033328056/0/vertical_a_26_1528635838033328056.png'
p525
assS'bengali'
p526
(dp527
S'-1068123825937844454'
p528
(lp529
S'/afs/athena.mit.edu/user/j/g/jgross/web_scripts/alphabets/results/unreviewed/m1068123825937844454/0/bengali_01_-1068123825937844454.png'
p530
aS'/afs/athena.mit.edu/user/j/g/jgross/web_scripts/alphabets/results/unreviewed/m1068123825937844454/0/bengali_02_-1068123825937844454.png'
p531
aS'/afs/athena.mit.edu/user/j/g/jgross/web_scripts/alphabets/results/unreviewed/m1068123825937844454/0/bengali_03_-1068123825937844454.png'
p532
aS'/afs/athena.mit.edu/user/j/g/jgross/web_scripts/alphabets/results/unreviewed/m1068123825937844454/0/bengali_04_-1068123825937844454.png'
p533
aS'/afs/athena.mit.edu/user/j/g/jgross/web_scripts/alphabets/results/unreviewed/m1068123825937844454/0/bengali_05_-1068123825937844454.png'
p534
aS'/afs/athena.mit.edu/user/j/g/jgross/web_scripts/alphabets/results/unreviewed/m1068123825937844454/0/bengali_06_-1068123825937844454.png'
p535
aS'/afs/athena.mit.edu/user/j/g/jgross/web_scripts/alphabets/results/unreviewed/m1068123825937844454/0/bengali_07_-1068123825937844454.png'
p536
aS'/afs/athena.mit.edu/user/j/g/jgross/web_scripts/alphabets/results/unreviewed/m1068123825937844454/0/bengali_08_-1068123825937844454.png'
p537
aS'/afs/athena.mit.edu/user/j/g/jgross/web_scripts/alphabets/results/unreviewed/m1068123825937844454/0/bengali_09_-1068123825937844454.png'
p538
aS'/afs/athena.mit.edu/user/j/g/jgross/web_scripts/alphabets/results/unreviewed/m1068123825937844454/0/bengali_10_-1068123825937844454.png'
p539
aS'/afs/athena.mit.edu/user/j/g/jgross/web_scripts/alphabets/results/unreviewed/m1068123825937844454/0/bengali_11_-1068123825937844454.png'
p540
aS'/afs/athena.mit.edu/user/j/g/jgross/web_scripts/alphabets/results/unreviewed/m1068123825937844454/0/bengali_12_-1068123825937844454.png'
p541
aS'/afs/athena.mit.edu/user/j/g/jgross/web_scripts/alphabets/results/unreviewed/m1068123825937844454/0/bengali_13_-1068123825937844454.png'
p542
aS'/afs/athena.mit.edu/user/j/g/jgross/web_scripts/alphabets/results/unreviewed/m1068123825937844454/0/bengali_14_-1068123825937844454.png'
p543
aS'/afs/athena.mit.edu/user/j/g/jgross/web_scripts/alphabets/results/unreviewed/m1068123825937844454/0/bengali_15_-1068123825937844454.png'
p544
aS'/afs/athena.mit.edu/user/j/g/jgross/web_scripts/alphabets/results/unreviewed/m1068123825937844454/0/bengali_16_-1068123825937844454.png'
p545
aS'/afs/athena.mit.edu/user/j/g/jgross/web_scripts/alphabets/results/unreviewed/m1068123825937844454/0/bengali_17_-1068123825937844454.png'
p546
aS'/afs/athena.mit.edu/user/j/g/jgross/web_scripts/alphabets/results/unreviewed/m1068123825937844454/0/bengali_18_-1068123825937844454.png'
p547
aS'/afs/athena.mit.edu/user/j/g/jgross/web_scripts/alphabets/results/unreviewed/m1068123825937844454/0/bengali_19_-1068123825937844454.png'
p548
aS'/afs/athena.mit.edu/user/j/g/jgross/web_scripts/alphabets/results/unreviewed/m1068123825937844454/0/bengali_20_-1068123825937844454.png'
p549
aS'/afs/athena.mit.edu/user/j/g/jgross/web_scripts/alphabets/results/unreviewed/m1068123825937844454/0/bengali_21_-1068123825937844454.png'
p550
aS'/afs/athena.mit.edu/user/j/g/jgross/web_scripts/alphabets/results/unreviewed/m1068123825937844454/0/bengali_22_-1068123825937844454.png'
p551
aS'/afs/athena.mit.edu/user/j/g/jgross/web_scripts/alphabets/results/unreviewed/m1068123825937844454/0/bengali_23_-1068123825937844454.png'
p552
aS'/afs/athena.mit.edu/user/j/g/jgross/web_scripts/alphabets/results/unreviewed/m1068123825937844454/0/bengali_24_-1068123825937844454.png'
p553
aS'/afs/athena.mit.edu/user/j/g/jgross/web_scripts/alphabets/results/unreviewed/m1068123825937844454/0/bengali_25_-1068123825937844454.png'
p554
aS'/afs/athena.mit.edu/user/j/g/jgross/web_scripts/alphabets/results/unreviewed/m1068123825937844454/0/bengali_26_-1068123825937844454.png'
p555
aS'/afs/athena.mit.edu/user/j/g/jgross/web_scripts/alphabets/results/unreviewed/m1068123825937844454/0/bengali_27_-1068123825937844454.png'
p556
aS'/afs/athena.mit.edu/user/j/g/jgross/web_scripts/alphabets/results/unreviewed/m1068123825937844454/0/bengali_28_-1068123825937844454.png'
p557
aS'/afs/athena.mit.edu/user/j/g/jgross/web_scripts/alphabets/results/unreviewed/m1068123825937844454/0/bengali_29_-1068123825937844454.png'
p558
aS'/afs/athena.mit.edu/user/j/g/jgross/web_scripts/alphabets/results/unreviewed/m1068123825937844454/0/bengali_30_-1068123825937844454.png'
p559
aS'/afs/athena.mit.edu/user/j/g/jgross/web_scripts/alphabets/results/unreviewed/m1068123825937844454/0/bengali_31_-1068123825937844454.png'
p560
aS'/afs/athena.mit.edu/user/j/g/jgross/web_scripts/alphabets/results/unreviewed/m1068123825937844454/0/bengali_32_-1068123825937844454.png'
p561
aS'/afs/athena.mit.edu/user/j/g/jgross/web_scripts/alphabets/results/unreviewed/m1068123825937844454/0/bengali_33_-1068123825937844454.png'
p562
aS'/afs/athena.mit.edu/user/j/g/jgross/web_scripts/alphabets/results/unreviewed/m1068123825937844454/0/bengali_34_-1068123825937844454.png'
p563
aS'/afs/athena.mit.edu/user/j/g/jgross/web_scripts/alphabets/results/unreviewed/m1068123825937844454/0/bengali_35_-1068123825937844454.png'
p564
aS'/afs/athena.mit.edu/user/j/g/jgross/web_scripts/alphabets/results/unreviewed/m1068123825937844454/0/bengali_36_-1068123825937844454.png'
p565
aS'/afs/athena.mit.edu/user/j/g/jgross/web_scripts/alphabets/results/unreviewed/m1068123825937844454/0/bengali_37_-1068123825937844454.png'
p566
aS'/afs/athena.mit.edu/user/j/g/jgross/web_scripts/alphabets/results/unreviewed/m1068123825937844454/0/bengali_38_-1068123825937844454.png'
p567
aS'/afs/athena.mit.edu/user/j/g/jgross/web_scripts/alphabets/results/unreviewed/m1068123825937844454/0/bengali_39_-1068123825937844454.png'
p568
aS'/afs/athena.mit.edu/user/j/g/jgross/web_scripts/alphabets/results/unreviewed/m1068123825937844454/0/bengali_40_-1068123825937844454.png'
p569
aS'/afs/athena.mit.edu/user/j/g/jgross/web_scripts/alphabets/results/unreviewed/m1068123825937844454/0/bengali_41_-1068123825937844454.png'
p570
aS'/afs/athena.mit.edu/user/j/g/jgross/web_scripts/alphabets/results/unreviewed/m1068123825937844454/0/bengali_42_-1068123825937844454.png'
p571
aS'/afs/athena.mit.edu/user/j/g/jgross/web_scripts/alphabets/results/unreviewed/m1068123825937844454/0/bengali_43_-1068123825937844454.png'
p572
aS'/afs/athena.mit.edu/user/j/g/jgross/web_scripts/alphabets/results/unreviewed/m1068123825937844454/0/bengali_44_-1068123825937844454.png'
p573
aS'/afs/athena.mit.edu/user/j/g/jgross/web_scripts/alphabets/results/unreviewed/m1068123825937844454/0/bengali_45_-1068123825937844454.png'
p574
aS'/afs/athena.mit.edu/user/j/g/jgross/web_scripts/alphabets/results/unreviewed/m1068123825937844454/0/bengali_46_-1068123825937844454.png'
p575
assS'arcadian'
p576
(dp577
S'-5208217318094312047'
p578
(lp579
S'/afs/athena.mit.edu/user/j/g/jgross/web_scripts/alphabets/results/unreviewed/m5208217318094312047/2/arcadian_01_-5208217318094312047.png'
p580
aS'/afs/athena.mit.edu/user/j/g/jgross/web_scripts/alphabets/results/unreviewed/m5208217318094312047/2/arcadian_02_-5208217318094312047.png'
p581
aS'/afs/athena.mit.edu/user/j/g/jgross/web_scripts/alphabets/results/unreviewed/m5208217318094312047/2/arcadian_03_-5208217318094312047.png'
p582
aS'/afs/athena.mit.edu/user/j/g/jgross/web_scripts/alphabets/results/unreviewed/m5208217318094312047/2/arcadian_04_-5208217318094312047.png'
p583
aS'/afs/athena.mit.edu/user/j/g/jgross/web_scripts/alphabets/results/unreviewed/m5208217318094312047/2/arcadian_05_-5208217318094312047.png'
p584
aS'/afs/athena.mit.edu/user/j/g/jgross/web_scripts/alphabets/results/unreviewed/m5208217318094312047/2/arcadian_06_-5208217318094312047.png'
p585
aS'/afs/athena.mit.edu/user/j/g/jgross/web_scripts/alphabets/results/unreviewed/m5208217318094312047/2/arcadian_07_-5208217318094312047.png'
p586
aS'/afs/athena.mit.edu/user/j/g/jgross/web_scripts/alphabets/results/unreviewed/m5208217318094312047/2/arcadian_08_-5208217318094312047.png'
p587
aS'/afs/athena.mit.edu/user/j/g/jgross/web_scripts/alphabets/results/unreviewed/m5208217318094312047/2/arcadian_09_-5208217318094312047.png'
p588
aS'/afs/athena.mit.edu/user/j/g/jgross/web_scripts/alphabets/results/unreviewed/m5208217318094312047/2/arcadian_10_-5208217318094312047.png'
p589
aS'/afs/athena.mit.edu/user/j/g/jgross/web_scripts/alphabets/results/unreviewed/m5208217318094312047/2/arcadian_11_-5208217318094312047.png'
p590
aS'/afs/athena.mit.edu/user/j/g/jgross/web_scripts/alphabets/results/unreviewed/m5208217318094312047/2/arcadian_12_-5208217318094312047.png'
p591
aS'/afs/athena.mit.edu/user/j/g/jgross/web_scripts/alphabets/results/unreviewed/m5208217318094312047/2/arcadian_13_-5208217318094312047.png'
p592
aS'/afs/athena.mit.edu/user/j/g/jgross/web_scripts/alphabets/results/unreviewed/m5208217318094312047/2/arcadian_14_-5208217318094312047.png'
p593
aS'/afs/athena.mit.edu/user/j/g/jgross/web_scripts/alphabets/results/unreviewed/m5208217318094312047/2/arcadian_15_-5208217318094312047.png'
p594
aS'/afs/athena.mit.edu/user/j/g/jgross/web_scripts/alphabets/results/unreviewed/m5208217318094312047/2/arcadian_16_-5208217318094312047.png'
p595
aS'/afs/athena.mit.edu/user/j/g/jgross/web_scripts/alphabets/results/unreviewed/m5208217318094312047/2/arcadian_17_-5208217318094312047.png'
p596
aS'/afs/athena.mit.edu/user/j/g/jgross/web_scripts/alphabets/results/unreviewed/m5208217318094312047/2/arcadian_18_-5208217318094312047.png'
p597
aS'/afs/athena.mit.edu/user/j/g/jgross/web_scripts/alphabets/results/unreviewed/m5208217318094312047/2/arcadian_19_-5208217318094312047.png'
p598
aS'/afs/athena.mit.edu/user/j/g/jgross/web_scripts/alphabets/results/unreviewed/m5208217318094312047/2/arcadian_20_-5208217318094312047.png'
p599
aS'/afs/athena.mit.edu/user/j/g/jgross/web_scripts/alphabets/results/unreviewed/m5208217318094312047/2/arcadian_21_-5208217318094312047.png'
p600
aS'/afs/athena.mit.edu/user/j/g/jgross/web_scripts/alphabets/results/unreviewed/m5208217318094312047/2/arcadian_22_-5208217318094312047.png'
p601
aS'/afs/athena.mit.edu/user/j/g/jgross/web_scripts/alphabets/results/unreviewed/m5208217318094312047/2/arcadian_23_-5208217318094312047.png'
p602
aS'/afs/athena.mit.edu/user/j/g/jgross/web_scripts/alphabets/results/unreviewed/m5208217318094312047/2/arcadian_24_-5208217318094312047.png'
p603
aS'/afs/athena.mit.edu/user/j/g/jgross/web_scripts/alphabets/results/unreviewed/m5208217318094312047/2/arcadian_25_-5208217318094312047.png'
p604
aS'/afs/athena.mit.edu/user/j/g/jgross/web_scripts/alphabets/results/unreviewed/m5208217318094312047/2/arcadian_26_-5208217318094312047.png'
p605
assS'korean'
p606
(dp607
S'5833516941190258490'
p608
(lp609
S'/afs/athena.mit.edu/user/j/g/jgross/web_scripts/alphabets/results/unreviewed/5833516941190258490/0/korean_01_5833516941190258490.png'
p610
aS'/afs/athena.mit.edu/user/j/g/jgross/web_scripts/alphabets/results/unreviewed/5833516941190258490/0/korean_02_5833516941190258490.png'
p611
aS'/afs/athena.mit.edu/user/j/g/jgross/web_scripts/alphabets/results/unreviewed/5833516941190258490/0/korean_03_5833516941190258490.png'
p612
aS'/afs/athena.mit.edu/user/j/g/jgross/web_scripts/alphabets/results/unreviewed/5833516941190258490/0/korean_04_5833516941190258490.png'
p613
aS'/afs/athena.mit.edu/user/j/g/jgross/web_scripts/alphabets/results/unreviewed/5833516941190258490/0/korean_05_5833516941190258490.png'
p614
aS'/afs/athena.mit.edu/user/j/g/jgross/web_scripts/alphabets/results/unreviewed/5833516941190258490/0/korean_06_5833516941190258490.png'
p615
aS'/afs/athena.mit.edu/user/j/g/jgross/web_scripts/alphabets/results/unreviewed/5833516941190258490/0/korean_07_5833516941190258490.png'
p616
aS'/afs/athena.mit.edu/user/j/g/jgross/web_scripts/alphabets/results/unreviewed/5833516941190258490/0/korean_08_5833516941190258490.png'
p617
aS'/afs/athena.mit.edu/user/j/g/jgross/web_scripts/alphabets/results/unreviewed/5833516941190258490/0/korean_09_5833516941190258490.png'
p618
aS'/afs/athena.mit.edu/user/j/g/jgross/web_scripts/alphabets/results/unreviewed/5833516941190258490/0/korean_10_5833516941190258490.png'
p619
aS'/afs/athena.mit.edu/user/j/g/jgross/web_scripts/alphabets/results/unreviewed/5833516941190258490/0/korean_11_5833516941190258490.png'
p620
aS'/afs/athena.mit.edu/user/j/g/jgross/web_scripts/alphabets/results/unreviewed/5833516941190258490/0/korean_12_5833516941190258490.png'
p621
aS'/afs/athena.mit.edu/user/j/g/jgross/web_scripts/alphabets/results/unreviewed/5833516941190258490/0/korean_13_5833516941190258490.png'
p622
aS'/afs/athena.mit.edu/user/j/g/jgross/web_scripts/alphabets/results/unreviewed/5833516941190258490/0/korean_14_5833516941190258490.png'
p623
aS'/afs/athena.mit.edu/user/j/g/jgross/web_scripts/alphabets/results/unreviewed/5833516941190258490/0/korean_15_5833516941190258490.png'
p624
aS'/afs/athena.mit.edu/user/j/g/jgross/web_scripts/alphabets/results/unreviewed/5833516941190258490/0/korean_16_5833516941190258490.png'
p625
aS'/afs/athena.mit.edu/user/j/g/jgross/web_scripts/alphabets/results/unreviewed/5833516941190258490/0/korean_17_5833516941190258490.png'
p626
aS'/afs/athena.mit.edu/user/j/g/jgross/web_scripts/alphabets/results/unreviewed/5833516941190258490/0/korean_18_5833516941190258490.png'
p627
aS'/afs/athena.mit.edu/user/j/g/jgross/web_scripts/alphabets/results/unreviewed/5833516941190258490/0/korean_19_5833516941190258490.png'
p628
aS'/afs/athena.mit.edu/user/j/g/jgross/web_scripts/alphabets/results/unreviewed/5833516941190258490/0/korean_20_5833516941190258490.png'
p629
aS'/afs/athena.mit.edu/user/j/g/jgross/web_scripts/alphabets/results/unreviewed/5833516941190258490/0/korean_21_5833516941190258490.png'
p630
aS'/afs/athena.mit.edu/user/j/g/jgross/web_scripts/alphabets/results/unreviewed/5833516941190258490/0/korean_22_5833516941190258490.png'
p631
aS'/afs/athena.mit.edu/user/j/g/jgross/web_scripts/alphabets/results/unreviewed/5833516941190258490/0/korean_23_5833516941190258490.png'
p632
aS'/afs/athena.mit.edu/user/j/g/jgross/web_scripts/alphabets/results/unreviewed/5833516941190258490/0/korean_24_5833516941190258490.png'
p633
aS'/afs/athena.mit.edu/user/j/g/jgross/web_scripts/alphabets/results/unreviewed/5833516941190258490/0/korean_25_5833516941190258490.png'
p634
aS'/afs/athena.mit.edu/user/j/g/jgross/web_scripts/alphabets/results/unreviewed/5833516941190258490/0/korean_26_5833516941190258490.png'
p635
aS'/afs/athena.mit.edu/user/j/g/jgross/web_scripts/alphabets/results/unreviewed/5833516941190258490/0/korean_27_5833516941190258490.png'
p636
aS'/afs/athena.mit.edu/user/j/g/jgross/web_scripts/alphabets/results/unreviewed/5833516941190258490/0/korean_28_5833516941190258490.png'
p637
aS'/afs/athena.mit.edu/user/j/g/jgross/web_scripts/alphabets/results/unreviewed/5833516941190258490/0/korean_29_5833516941190258490.png'
p638
aS'/afs/athena.mit.edu/user/j/g/jgross/web_scripts/alphabets/results/unreviewed/5833516941190258490/0/korean_30_5833516941190258490.png'
p639
aS'/afs/athena.mit.edu/user/j/g/jgross/web_scripts/alphabets/results/unreviewed/5833516941190258490/0/korean_31_5833516941190258490.png'
p640
aS'/afs/athena.mit.edu/user/j/g/jgross/web_scripts/alphabets/results/unreviewed/5833516941190258490/0/korean_32_5833516941190258490.png'
p641
aS'/afs/athena.mit.edu/user/j/g/jgross/web_scripts/alphabets/results/unreviewed/5833516941190258490/0/korean_33_5833516941190258490.png'
p642
aS'/afs/athena.mit.edu/user/j/g/jgross/web_scripts/alphabets/results/unreviewed/5833516941190258490/0/korean_34_5833516941190258490.png'
p643
aS'/afs/athena.mit.edu/user/j/g/jgross/web_scripts/alphabets/results/unreviewed/5833516941190258490/0/korean_35_5833516941190258490.png'
p644
aS'/afs/athena.mit.edu/user/j/g/jgross/web_scripts/alphabets/results/unreviewed/5833516941190258490/0/korean_36_5833516941190258490.png'
p645
aS'/afs/athena.mit.edu/user/j/g/jgross/web_scripts/alphabets/results/unreviewed/5833516941190258490/0/korean_37_5833516941190258490.png'
p646
aS'/afs/athena.mit.edu/user/j/g/jgross/web_scripts/alphabets/results/unreviewed/5833516941190258490/0/korean_38_5833516941190258490.png'
p647
aS'/afs/athena.mit.edu/user/j/g/jgross/web_scripts/alphabets/results/unreviewed/5833516941190258490/0/korean_39_5833516941190258490.png'
p648
aS'/afs/athena.mit.edu/user/j/g/jgross/web_scripts/alphabets/results/unreviewed/5833516941190258490/0/korean_40_5833516941190258490.png'
p649
asS'3611769147214103997'
p650
(lp651
S'/afs/athena.mit.edu/user/j/g/jgross/web_scripts/alphabets/results/unreviewed/3611769147214103997/0/korean_01_3611769147214103997.png'
p652
aS'/afs/athena.mit.edu/user/j/g/jgross/web_scripts/alphabets/results/unreviewed/3611769147214103997/0/korean_02_3611769147214103997.png'
p653
aS'/afs/athena.mit.edu/user/j/g/jgross/web_scripts/alphabets/results/unreviewed/3611769147214103997/0/korean_03_3611769147214103997.png'
p654
aS'/afs/athena.mit.edu/user/j/g/jgross/web_scripts/alphabets/results/unreviewed/3611769147214103997/0/korean_04_3611769147214103997.png'
p655
aS'/afs/athena.mit.edu/user/j/g/jgross/web_scripts/alphabets/results/unreviewed/3611769147214103997/0/korean_05_3611769147214103997.png'
p656
aS'/afs/athena.mit.edu/user/j/g/jgross/web_scripts/alphabets/results/unreviewed/3611769147214103997/0/korean_06_3611769147214103997.png'
p657
aS'/afs/athena.mit.edu/user/j/g/jgross/web_scripts/alphabets/results/unreviewed/3611769147214103997/0/korean_07_3611769147214103997.png'
p658
aS'/afs/athena.mit.edu/user/j/g/jgross/web_scripts/alphabets/results/unreviewed/3611769147214103997/0/korean_08_3611769147214103997.png'
p659
aS'/afs/athena.mit.edu/user/j/g/jgross/web_scripts/alphabets/results/unreviewed/3611769147214103997/0/korean_09_3611769147214103997.png'
p660
aS'/afs/athena.mit.edu/user/j/g/jgross/web_scripts/alphabets/results/unreviewed/3611769147214103997/0/korean_10_3611769147214103997.png'
p661
aS'/afs/athena.mit.edu/user/j/g/jgross/web_scripts/alphabets/results/unreviewed/3611769147214103997/0/korean_11_3611769147214103997.png'
p662
aS'/afs/athena.mit.edu/user/j/g/jgross/web_scripts/alphabets/results/unreviewed/3611769147214103997/0/korean_12_3611769147214103997.png'
p663
aS'/afs/athena.mit.edu/user/j/g/jgross/web_scripts/alphabets/results/unreviewed/3611769147214103997/0/korean_13_3611769147214103997.png'
p664
aS'/afs/athena.mit.edu/user/j/g/jgross/web_scripts/alphabets/results/unreviewed/3611769147214103997/0/korean_14_3611769147214103997.png'
p665
aS'/afs/athena.mit.edu/user/j/g/jgross/web_scripts/alphabets/results/unreviewed/3611769147214103997/0/korean_15_3611769147214103997.png'
p666
aS'/afs/athena.mit.edu/user/j/g/jgross/web_scripts/alphabets/results/unreviewed/3611769147214103997/0/korean_16_3611769147214103997.png'
p667
aS'/afs/athena.mit.edu/user/j/g/jgross/web_scripts/alphabets/results/unreviewed/3611769147214103997/0/korean_17_3611769147214103997.png'
p668
aS'/afs/athena.mit.edu/user/j/g/jgross/web_scripts/alphabets/results/unreviewed/3611769147214103997/0/korean_18_3611769147214103997.png'
p669
aS'/afs/athena.mit.edu/user/j/g/jgross/web_scripts/alphabets/results/unreviewed/3611769147214103997/0/korean_19_3611769147214103997.png'
p670
aS'/afs/athena.mit.edu/user/j/g/jgross/web_scripts/alphabets/results/unreviewed/3611769147214103997/0/korean_20_3611769147214103997.png'
p671
aS'/afs/athena.mit.edu/user/j/g/jgross/web_scripts/alphabets/results/unreviewed/3611769147214103997/0/korean_21_3611769147214103997.png'
p672
aS'/afs/athena.mit.edu/user/j/g/jgross/web_scripts/alphabets/results/unreviewed/3611769147214103997/0/korean_22_3611769147214103997.png'
p673
aS'/afs/athena.mit.edu/user/j/g/jgross/web_scripts/alphabets/results/unreviewed/3611769147214103997/0/korean_23_3611769147214103997.png'
p674
aS'/afs/athena.mit.edu/user/j/g/jgross/web_scripts/alphabets/results/unreviewed/3611769147214103997/0/korean_24_3611769147214103997.png'
p675
aS'/afs/athena.mit.edu/user/j/g/jgross/web_scripts/alphabets/results/unreviewed/3611769147214103997/0/korean_25_3611769147214103997.png'
p676
aS'/afs/athena.mit.edu/user/j/g/jgross/web_scripts/alphabets/results/unreviewed/3611769147214103997/0/korean_26_3611769147214103997.png'
p677
aS'/afs/athena.mit.edu/user/j/g/jgross/web_scripts/alphabets/results/unreviewed/3611769147214103997/0/korean_27_3611769147214103997.png'
p678
aS'/afs/athena.mit.edu/user/j/g/jgross/web_scripts/alphabets/results/unreviewed/3611769147214103997/0/korean_28_3611769147214103997.png'
p679
aS'/afs/athena.mit.edu/user/j/g/jgross/web_scripts/alphabets/results/unreviewed/3611769147214103997/0/korean_29_3611769147214103997.png'
p680
aS'/afs/athena.mit.edu/user/j/g/jgross/web_scripts/alphabets/results/unreviewed/3611769147214103997/0/korean_30_3611769147214103997.png'
p681
aS'/afs/athena.mit.edu/user/j/g/jgross/web_scripts/alphabets/results/unreviewed/3611769147214103997/0/korean_31_3611769147214103997.png'
p682
aS'/afs/athena.mit.edu/user/j/g/jgross/web_scripts/alphabets/results/unreviewed/3611769147214103997/0/korean_32_3611769147214103997.png'
p683
aS'/afs/athena.mit.edu/user/j/g/jgross/web_scripts/alphabets/results/unreviewed/3611769147214103997/0/korean_33_3611769147214103997.png'
p684
aS'/afs/athena.mit.edu/user/j/g/jgross/web_scripts/alphabets/results/unreviewed/3611769147214103997/0/korean_34_3611769147214103997.png'
p685
aS'/afs/athena.mit.edu/user/j/g/jgross/web_scripts/alphabets/results/unreviewed/3611769147214103997/0/korean_35_3611769147214103997.png'
p686
aS'/afs/athena.mit.edu/user/j/g/jgross/web_scripts/alphabets/results/unreviewed/3611769147214103997/0/korean_36_3611769147214103997.png'
p687
aS'/afs/athena.mit.edu/user/j/g/jgross/web_scripts/alphabets/results/unreviewed/3611769147214103997/0/korean_37_3611769147214103997.png'
p688
aS'/afs/athena.mit.edu/user/j/g/jgross/web_scripts/alphabets/results/unreviewed/3611769147214103997/0/korean_38_3611769147214103997.png'
p689
aS'/afs/athena.mit.edu/user/j/g/jgross/web_scripts/alphabets/results/unreviewed/3611769147214103997/0/korean_39_3611769147214103997.png'
p690
aS'/afs/athena.mit.edu/user/j/g/jgross/web_scripts/alphabets/results/unreviewed/3611769147214103997/0/korean_40_3611769147214103997.png'
p691
assS'blackfoot'
p692
(dp693
S'-5208217318094312047'
p694
(lp695
S'/afs/athena.mit.edu/user/j/g/jgross/web_scripts/alphabets/results/unreviewed/m5208217318094312047/3/blackfoot_01_-5208217318094312047.png'
p696
aS'/afs/athena.mit.edu/user/j/g/jgross/web_scripts/alphabets/results/unreviewed/m5208217318094312047/3/blackfoot_02_-5208217318094312047.png'
p697
aS'/afs/athena.mit.edu/user/j/g/jgross/web_scripts/alphabets/results/unreviewed/m5208217318094312047/3/blackfoot_03_-5208217318094312047.png'
p698
aS'/afs/athena.mit.edu/user/j/g/jgross/web_scripts/alphabets/results/unreviewed/m5208217318094312047/3/blackfoot_04_-5208217318094312047.png'
p699
aS'/afs/athena.mit.edu/user/j/g/jgross/web_scripts/alphabets/results/unreviewed/m5208217318094312047/3/blackfoot_05_-5208217318094312047.png'
p700
aS'/afs/athena.mit.edu/user/j/g/jgross/web_scripts/alphabets/results/unreviewed/m5208217318094312047/3/blackfoot_06_-5208217318094312047.png'
p701
aS'/afs/athena.mit.edu/user/j/g/jgross/web_scripts/alphabets/results/unreviewed/m5208217318094312047/3/blackfoot_07_-5208217318094312047.png'
p702
aS'/afs/athena.mit.edu/user/j/g/jgross/web_scripts/alphabets/results/unreviewed/m5208217318094312047/3/blackfoot_08_-5208217318094312047.png'
p703
aS'/afs/athena.mit.edu/user/j/g/jgross/web_scripts/alphabets/results/unreviewed/m5208217318094312047/3/blackfoot_09_-5208217318094312047.png'
p704
aS'/afs/athena.mit.edu/user/j/g/jgross/web_scripts/alphabets/results/unreviewed/m5208217318094312047/3/blackfoot_10_-5208217318094312047.png'
p705
aS'/afs/athena.mit.edu/user/j/g/jgross/web_scripts/alphabets/results/unreviewed/m5208217318094312047/3/blackfoot_11_-5208217318094312047.png'
p706
aS'/afs/athena.mit.edu/user/j/g/jgross/web_scripts/alphabets/results/unreviewed/m5208217318094312047/3/blackfoot_12_-5208217318094312047.png'
p707
aS'/afs/athena.mit.edu/user/j/g/jgross/web_scripts/alphabets/results/unreviewed/m5208217318094312047/3/blackfoot_13_-5208217318094312047.png'
p708
aS'/afs/athena.mit.edu/user/j/g/jgross/web_scripts/alphabets/results/unreviewed/m5208217318094312047/3/blackfoot_14_-5208217318094312047.png'
p709
assS'balinese'
p710
(dp711
S'-5208217318094312048'
p712
(lp713
S'/afs/athena.mit.edu/user/j/g/jgross/web_scripts/alphabets/results/unreviewed/m5208217318094312048/0/balinese_01_-5208217318094312048.png'
p714
aS'/afs/athena.mit.edu/user/j/g/jgross/web_scripts/alphabets/results/unreviewed/m5208217318094312048/0/balinese_02_-5208217318094312048.png'
p715
aS'/afs/athena.mit.edu/user/j/g/jgross/web_scripts/alphabets/results/unreviewed/m5208217318094312048/0/balinese_03_-5208217318094312048.png'
p716
aS'/afs/athena.mit.edu/user/j/g/jgross/web_scripts/alphabets/results/unreviewed/m5208217318094312048/0/balinese_04_-5208217318094312048.png'
p717
aS'/afs/athena.mit.edu/user/j/g/jgross/web_scripts/alphabets/results/unreviewed/m5208217318094312048/0/balinese_05_-5208217318094312048.png'
p718
aS'/afs/athena.mit.edu/user/j/g/jgross/web_scripts/alphabets/results/unreviewed/m5208217318094312048/0/balinese_06_-5208217318094312048.png'
p719
aS'/afs/athena.mit.edu/user/j/g/jgross/web_scripts/alphabets/results/unreviewed/m5208217318094312048/0/balinese_07_-5208217318094312048.png'
p720
aS'/afs/athena.mit.edu/user/j/g/jgross/web_scripts/alphabets/results/unreviewed/m5208217318094312048/0/balinese_08_-5208217318094312048.png'
p721
aS'/afs/athena.mit.edu/user/j/g/jgross/web_scripts/alphabets/results/unreviewed/m5208217318094312048/0/balinese_09_-5208217318094312048.png'
p722
aS'/afs/athena.mit.edu/user/j/g/jgross/web_scripts/alphabets/results/unreviewed/m5208217318094312048/0/balinese_10_-5208217318094312048.png'
p723
aS'/afs/athena.mit.edu/user/j/g/jgross/web_scripts/alphabets/results/unreviewed/m5208217318094312048/0/balinese_11_-5208217318094312048.png'
p724
aS'/afs/athena.mit.edu/user/j/g/jgross/web_scripts/alphabets/results/unreviewed/m5208217318094312048/0/balinese_12_-5208217318094312048.png'
p725
aS'/afs/athena.mit.edu/user/j/g/jgross/web_scripts/alphabets/results/unreviewed/m5208217318094312048/0/balinese_13_-5208217318094312048.png'
p726
aS'/afs/athena.mit.edu/user/j/g/jgross/web_scripts/alphabets/results/unreviewed/m5208217318094312048/0/balinese_14_-5208217318094312048.png'
p727
aS'/afs/athena.mit.edu/user/j/g/jgross/web_scripts/alphabets/results/unreviewed/m5208217318094312048/0/balinese_15_-5208217318094312048.png'
p728
aS'/afs/athena.mit.edu/user/j/g/jgross/web_scripts/alphabets/results/unreviewed/m5208217318094312048/0/balinese_16_-5208217318094312048.png'
p729
aS'/afs/athena.mit.edu/user/j/g/jgross/web_scripts/alphabets/results/unreviewed/m5208217318094312048/0/balinese_17_-5208217318094312048.png'
p730
aS'/afs/athena.mit.edu/user/j/g/jgross/web_scripts/alphabets/results/unreviewed/m5208217318094312048/0/balinese_18_-5208217318094312048.png'
p731
aS'/afs/athena.mit.edu/user/j/g/jgross/web_scripts/alphabets/results/unreviewed/m5208217318094312048/0/balinese_19_-5208217318094312048.png'
p732
aS'/afs/athena.mit.edu/user/j/g/jgross/web_scripts/alphabets/results/unreviewed/m5208217318094312048/0/balinese_20_-5208217318094312048.png'
p733
aS'/afs/athena.mit.edu/user/j/g/jgross/web_scripts/alphabets/results/unreviewed/m5208217318094312048/0/balinese_21_-5208217318094312048.png'
p734
aS'/afs/athena.mit.edu/user/j/g/jgross/web_scripts/alphabets/results/unreviewed/m5208217318094312048/0/balinese_22_-5208217318094312048.png'
p735
aS'/afs/athena.mit.edu/user/j/g/jgross/web_scripts/alphabets/results/unreviewed/m5208217318094312048/0/balinese_23_-5208217318094312048.png'
p736
aS'/afs/athena.mit.edu/user/j/g/jgross/web_scripts/alphabets/results/unreviewed/m5208217318094312048/0/balinese_24_-5208217318094312048.png'
p737
asS'-5208217318093312035'
p738
(lp739
S'/afs/athena.mit.edu/user/j/g/jgross/web_scripts/alphabets/results/unreviewed/m5208217318093312035/1/balinese_01_-5208217318093312035.png'
p740
aS'/afs/athena.mit.edu/user/j/g/jgross/web_scripts/alphabets/results/unreviewed/m5208217318093312035/1/balinese_02_-5208217318093312035.png'
p741
aS'/afs/athena.mit.edu/user/j/g/jgross/web_scripts/alphabets/results/unreviewed/m5208217318093312035/1/balinese_03_-5208217318093312035.png'
p742
aS'/afs/athena.mit.edu/user/j/g/jgross/web_scripts/alphabets/results/unreviewed/m5208217318093312035/1/balinese_04_-5208217318093312035.png'
p743
aS'/afs/athena.mit.edu/user/j/g/jgross/web_scripts/alphabets/results/unreviewed/m5208217318093312035/1/balinese_05_-5208217318093312035.png'
p744
aS'/afs/athena.mit.edu/user/j/g/jgross/web_scripts/alphabets/results/unreviewed/m5208217318093312035/1/balinese_06_-5208217318093312035.png'
p745
aS'/afs/athena.mit.edu/user/j/g/jgross/web_scripts/alphabets/results/unreviewed/m5208217318093312035/1/balinese_07_-5208217318093312035.png'
p746
aS'/afs/athena.mit.edu/user/j/g/jgross/web_scripts/alphabets/results/unreviewed/m5208217318093312035/1/balinese_08_-5208217318093312035.png'
p747
aS'/afs/athena.mit.edu/user/j/g/jgross/web_scripts/alphabets/results/unreviewed/m5208217318093312035/1/balinese_09_-5208217318093312035.png'
p748
aS'/afs/athena.mit.edu/user/j/g/jgross/web_scripts/alphabets/results/unreviewed/m5208217318093312035/1/balinese_10_-5208217318093312035.png'
p749
aS'/afs/athena.mit.edu/user/j/g/jgross/web_scripts/alphabets/results/unreviewed/m5208217318093312035/1/balinese_11_-5208217318093312035.png'
p750
aS'/afs/athena.mit.edu/user/j/g/jgross/web_scripts/alphabets/results/unreviewed/m5208217318093312035/1/balinese_12_-5208217318093312035.png'
p751
aS'/afs/athena.mit.edu/user/j/g/jgross/web_scripts/alphabets/results/unreviewed/m5208217318093312035/1/balinese_13_-5208217318093312035.png'
p752
aS'/afs/athena.mit.edu/user/j/g/jgross/web_scripts/alphabets/results/unreviewed/m5208217318093312035/1/balinese_14_-5208217318093312035.png'
p753
aS'/afs/athena.mit.edu/user/j/g/jgross/web_scripts/alphabets/results/unreviewed/m5208217318093312035/1/balinese_15_-5208217318093312035.png'
p754
aS'/afs/athena.mit.edu/user/j/g/jgross/web_scripts/alphabets/results/unreviewed/m5208217318093312035/1/balinese_16_-5208217318093312035.png'
p755
aS'/afs/athena.mit.edu/user/j/g/jgross/web_scripts/alphabets/results/unreviewed/m5208217318093312035/1/balinese_17_-5208217318093312035.png'
p756
aS'/afs/athena.mit.edu/user/j/g/jgross/web_scripts/alphabets/results/unreviewed/m5208217318093312035/1/balinese_18_-5208217318093312035.png'
p757
aS'/afs/athena.mit.edu/user/j/g/jgross/web_scripts/alphabets/results/unreviewed/m5208217318093312035/1/balinese_19_-5208217318093312035.png'
p758
aS'/afs/athena.mit.edu/user/j/g/jgross/web_scripts/alphabets/results/unreviewed/m5208217318093312035/1/balinese_20_-5208217318093312035.png'
p759
aS'/afs/athena.mit.edu/user/j/g/jgross/web_scripts/alphabets/results/unreviewed/m5208217318093312035/1/balinese_21_-5208217318093312035.png'
p760
aS'/afs/athena.mit.edu/user/j/g/jgross/web_scripts/alphabets/results/unreviewed/m5208217318093312035/1/balinese_22_-5208217318093312035.png'
p761
aS'/afs/athena.mit.edu/user/j/g/jgross/web_scripts/alphabets/results/unreviewed/m5208217318093312035/1/balinese_23_-5208217318093312035.png'
p762
aS'/afs/athena.mit.edu/user/j/g/jgross/web_scripts/alphabets/results/unreviewed/m5208217318093312035/1/balinese_24_-5208217318093312035.png'
p763
assS'latin'
p764
(dp765
S'1394902276398535504'
p766
(lp767
S'/afs/athena.mit.edu/user/j/g/jgross/web_scripts/alphabets/results/unreviewed/1394902276398535504/0/latin_01_1394902276398535504.png'
p768
aS'/afs/athena.mit.edu/user/j/g/jgross/web_scripts/alphabets/results/unreviewed/1394902276398535504/0/latin_02_1394902276398535504.png'
p769
aS'/afs/athena.mit.edu/user/j/g/jgross/web_scripts/alphabets/results/unreviewed/1394902276398535504/0/latin_03_1394902276398535504.png'
p770
aS'/afs/athena.mit.edu/user/j/g/jgross/web_scripts/alphabets/results/unreviewed/1394902276398535504/0/latin_04_1394902276398535504.png'
p771
aS'/afs/athena.mit.edu/user/j/g/jgross/web_scripts/alphabets/results/unreviewed/1394902276398535504/0/latin_05_1394902276398535504.png'
p772
aS'/afs/athena.mit.edu/user/j/g/jgross/web_scripts/alphabets/results/unreviewed/1394902276398535504/0/latin_06_1394902276398535504.png'
p773
aS'/afs/athena.mit.edu/user/j/g/jgross/web_scripts/alphabets/results/unreviewed/1394902276398535504/0/latin_07_1394902276398535504.png'
p774
aS'/afs/athena.mit.edu/user/j/g/jgross/web_scripts/alphabets/results/unreviewed/1394902276398535504/0/latin_08_1394902276398535504.png'
p775
aS'/afs/athena.mit.edu/user/j/g/jgross/web_scripts/alphabets/results/unreviewed/1394902276398535504/0/latin_09_1394902276398535504.png'
p776
aS'/afs/athena.mit.edu/user/j/g/jgross/web_scripts/alphabets/results/unreviewed/1394902276398535504/0/latin_10_1394902276398535504.png'
p777
aS'/afs/athena.mit.edu/user/j/g/jgross/web_scripts/alphabets/results/unreviewed/1394902276398535504/0/latin_11_1394902276398535504.png'
p778
aS'/afs/athena.mit.edu/user/j/g/jgross/web_scripts/alphabets/results/unreviewed/1394902276398535504/0/latin_12_1394902276398535504.png'
p779
aS'/afs/athena.mit.edu/user/j/g/jgross/web_scripts/alphabets/results/unreviewed/1394902276398535504/0/latin_13_1394902276398535504.png'
p780
aS'/afs/athena.mit.edu/user/j/g/jgross/web_scripts/alphabets/results/unreviewed/1394902276398535504/0/latin_14_1394902276398535504.png'
p781
aS'/afs/athena.mit.edu/user/j/g/jgross/web_scripts/alphabets/results/unreviewed/1394902276398535504/0/latin_15_1394902276398535504.png'
p782
aS'/afs/athena.mit.edu/user/j/g/jgross/web_scripts/alphabets/results/unreviewed/1394902276398535504/0/latin_16_1394902276398535504.png'
p783
aS'/afs/athena.mit.edu/user/j/g/jgross/web_scripts/alphabets/results/unreviewed/1394902276398535504/0/latin_17_1394902276398535504.png'
p784
aS'/afs/athena.mit.edu/user/j/g/jgross/web_scripts/alphabets/results/unreviewed/1394902276398535504/0/latin_18_1394902276398535504.png'
p785
aS'/afs/athena.mit.edu/user/j/g/jgross/web_scripts/alphabets/results/unreviewed/1394902276398535504/0/latin_19_1394902276398535504.png'
p786
aS'/afs/athena.mit.edu/user/j/g/jgross/web_scripts/alphabets/results/unreviewed/1394902276398535504/0/latin_20_1394902276398535504.png'
p787
aS'/afs/athena.mit.edu/user/j/g/jgross/web_scripts/alphabets/results/unreviewed/1394902276398535504/0/latin_21_1394902276398535504.png'
p788
aS'/afs/athena.mit.edu/user/j/g/jgross/web_scripts/alphabets/results/unreviewed/1394902276398535504/0/latin_22_1394902276398535504.png'
p789
aS'/afs/athena.mit.edu/user/j/g/jgross/web_scripts/alphabets/results/unreviewed/1394902276398535504/0/latin_23_1394902276398535504.png'
p790
aS'/afs/athena.mit.edu/user/j/g/jgross/web_scripts/alphabets/results/unreviewed/1394902276398535504/0/latin_24_1394902276398535504.png'
p791
aS'/afs/athena.mit.edu/user/j/g/jgross/web_scripts/alphabets/results/unreviewed/1394902276398535504/0/latin_25_1394902276398535504.png'
p792
aS'/afs/athena.mit.edu/user/j/g/jgross/web_scripts/alphabets/results/unreviewed/1394902276398535504/0/latin_26_1394902276398535504.png'
p793
assS'shavian'
p794
(dp795
S'-519291116580878149'
p796
(lp797
S'/afs/athena.mit.edu/user/j/g/jgross/web_scripts/alphabets/results/unreviewed/m519291116580878149/0/shavian_01_-519291116580878149.png'
p798
aS'/afs/athena.mit.edu/user/j/g/jgross/web_scripts/alphabets/results/unreviewed/m519291116580878149/0/shavian_02_-519291116580878149.png'
p799
aS'/afs/athena.mit.edu/user/j/g/jgross/web_scripts/alphabets/results/unreviewed/m519291116580878149/0/shavian_03_-519291116580878149.png'
p800
aS'/afs/athena.mit.edu/user/j/g/jgross/web_scripts/alphabets/results/unreviewed/m519291116580878149/0/shavian_04_-519291116580878149.png'
p801
aS'/afs/athena.mit.edu/user/j/g/jgross/web_scripts/alphabets/results/unreviewed/m519291116580878149/0/shavian_05_-519291116580878149.png'
p802
aS'/afs/athena.mit.edu/user/j/g/jgross/web_scripts/alphabets/results/unreviewed/m519291116580878149/0/shavian_06_-519291116580878149.png'
p803
aS'/afs/athena.mit.edu/user/j/g/jgross/web_scripts/alphabets/results/unreviewed/m519291116580878149/0/shavian_07_-519291116580878149.png'
p804
aS'/afs/athena.mit.edu/user/j/g/jgross/web_scripts/alphabets/results/unreviewed/m519291116580878149/0/shavian_08_-519291116580878149.png'
p805
aS'/afs/athena.mit.edu/user/j/g/jgross/web_scripts/alphabets/results/unreviewed/m519291116580878149/0/shavian_09_-519291116580878149.png'
p806
aS'/afs/athena.mit.edu/user/j/g/jgross/web_scripts/alphabets/results/unreviewed/m519291116580878149/0/shavian_10_-519291116580878149.png'
p807
aS'/afs/athena.mit.edu/user/j/g/jgross/web_scripts/alphabets/results/unreviewed/m519291116580878149/0/shavian_11_-519291116580878149.png'
p808
aS'/afs/athena.mit.edu/user/j/g/jgross/web_scripts/alphabets/results/unreviewed/m519291116580878149/0/shavian_12_-519291116580878149.png'
p809
aS'/afs/athena.mit.edu/user/j/g/jgross/web_scripts/alphabets/results/unreviewed/m519291116580878149/0/shavian_13_-519291116580878149.png'
p810
aS'/afs/athena.mit.edu/user/j/g/jgross/web_scripts/alphabets/results/unreviewed/m519291116580878149/0/shavian_14_-519291116580878149.png'
p811
aS'/afs/athena.mit.edu/user/j/g/jgross/web_scripts/alphabets/results/unreviewed/m519291116580878149/0/shavian_15_-519291116580878149.png'
p812
aS'/afs/athena.mit.edu/user/j/g/jgross/web_scripts/alphabets/results/unreviewed/m519291116580878149/0/shavian_16_-519291116580878149.png'
p813
aS'/afs/athena.mit.edu/user/j/g/jgross/web_scripts/alphabets/results/unreviewed/m519291116580878149/0/shavian_17_-519291116580878149.png'
p814
aS'/afs/athena.mit.edu/user/j/g/jgross/web_scripts/alphabets/results/unreviewed/m519291116580878149/0/shavian_18_-519291116580878149.png'
p815
aS'/afs/athena.mit.edu/user/j/g/jgross/web_scripts/alphabets/results/unreviewed/m519291116580878149/0/shavian_19_-519291116580878149.png'
p816
aS'/afs/athena.mit.edu/user/j/g/jgross/web_scripts/alphabets/results/unreviewed/m519291116580878149/0/shavian_20_-519291116580878149.png'
p817
aS'/afs/athena.mit.edu/user/j/g/jgross/web_scripts/alphabets/results/unreviewed/m519291116580878149/0/shavian_21_-519291116580878149.png'
p818
aS'/afs/athena.mit.edu/user/j/g/jgross/web_scripts/alphabets/results/unreviewed/m519291116580878149/0/shavian_22_-519291116580878149.png'
p819
aS'/afs/athena.mit.edu/user/j/g/jgross/web_scripts/alphabets/results/unreviewed/m519291116580878149/0/shavian_23_-519291116580878149.png'
p820
aS'/afs/athena.mit.edu/user/j/g/jgross/web_scripts/alphabets/results/unreviewed/m519291116580878149/0/shavian_24_-519291116580878149.png'
p821
aS'/afs/athena.mit.edu/user/j/g/jgross/web_scripts/alphabets/results/unreviewed/m519291116580878149/0/shavian_25_-519291116580878149.png'
p822
aS'/afs/athena.mit.edu/user/j/g/jgross/web_scripts/alphabets/results/unreviewed/m519291116580878149/0/shavian_26_-519291116580878149.png'
p823
assS'grantha'
p824
(dp825
S'6331451837349639561'
p826
(lp827
S'/afs/athena.mit.edu/user/j/g/jgross/web_scripts/alphabets/results/unreviewed/6331451837349639561/0/grantha_01_6331451837349639561.png'
p828
aS'/afs/athena.mit.edu/user/j/g/jgross/web_scripts/alphabets/results/unreviewed/6331451837349639561/0/grantha_02_6331451837349639561.png'
p829
aS'/afs/athena.mit.edu/user/j/g/jgross/web_scripts/alphabets/results/unreviewed/6331451837349639561/0/grantha_03_6331451837349639561.png'
p830
aS'/afs/athena.mit.edu/user/j/g/jgross/web_scripts/alphabets/results/unreviewed/6331451837349639561/0/grantha_04_6331451837349639561.png'
p831
aS'/afs/athena.mit.edu/user/j/g/jgross/web_scripts/alphabets/results/unreviewed/6331451837349639561/0/grantha_05_6331451837349639561.png'
p832
aS'/afs/athena.mit.edu/user/j/g/jgross/web_scripts/alphabets/results/unreviewed/6331451837349639561/0/grantha_06_6331451837349639561.png'
p833
aS'/afs/athena.mit.edu/user/j/g/jgross/web_scripts/alphabets/results/unreviewed/6331451837349639561/0/grantha_07_6331451837349639561.png'
p834
aS'/afs/athena.mit.edu/user/j/g/jgross/web_scripts/alphabets/results/unreviewed/6331451837349639561/0/grantha_08_6331451837349639561.png'
p835
aS'/afs/athena.mit.edu/user/j/g/jgross/web_scripts/alphabets/results/unreviewed/6331451837349639561/0/grantha_09_6331451837349639561.png'
p836
aS'/afs/athena.mit.edu/user/j/g/jgross/web_scripts/alphabets/results/unreviewed/6331451837349639561/0/grantha_10_6331451837349639561.png'
p837
aS'/afs/athena.mit.edu/user/j/g/jgross/web_scripts/alphabets/results/unreviewed/6331451837349639561/0/grantha_11_6331451837349639561.png'
p838
aS'/afs/athena.mit.edu/user/j/g/jgross/web_scripts/alphabets/results/unreviewed/6331451837349639561/0/grantha_12_6331451837349639561.png'
p839
aS'/afs/athena.mit.edu/user/j/g/jgross/web_scripts/alphabets/results/unreviewed/6331451837349639561/0/grantha_13_6331451837349639561.png'
p840
aS'/afs/athena.mit.edu/user/j/g/jgross/web_scripts/alphabets/results/unreviewed/6331451837349639561/0/grantha_14_6331451837349639561.png'
p841
aS'/afs/athena.mit.edu/user/j/g/jgross/web_scripts/alphabets/results/unreviewed/6331451837349639561/0/grantha_15_6331451837349639561.png'
p842
aS'/afs/athena.mit.edu/user/j/g/jgross/web_scripts/alphabets/results/unreviewed/6331451837349639561/0/grantha_16_6331451837349639561.png'
p843
aS'/afs/athena.mit.edu/user/j/g/jgross/web_scripts/alphabets/results/unreviewed/6331451837349639561/0/grantha_17_6331451837349639561.png'
p844
aS'/afs/athena.mit.edu/user/j/g/jgross/web_scripts/alphabets/results/unreviewed/6331451837349639561/0/grantha_18_6331451837349639561.png'
p845
aS'/afs/athena.mit.edu/user/j/g/jgross/web_scripts/alphabets/results/unreviewed/6331451837349639561/0/grantha_19_6331451837349639561.png'
p846
aS'/afs/athena.mit.edu/user/j/g/jgross/web_scripts/alphabets/results/unreviewed/6331451837349639561/0/grantha_20_6331451837349639561.png'
p847
aS'/afs/athena.mit.edu/user/j/g/jgross/web_scripts/alphabets/results/unreviewed/6331451837349639561/0/grantha_21_6331451837349639561.png'
p848
aS'/afs/athena.mit.edu/user/j/g/jgross/web_scripts/alphabets/results/unreviewed/6331451837349639561/0/grantha_22_6331451837349639561.png'
p849
aS'/afs/athena.mit.edu/user/j/g/jgross/web_scripts/alphabets/results/unreviewed/6331451837349639561/0/grantha_23_6331451837349639561.png'
p850
aS'/afs/athena.mit.edu/user/j/g/jgross/web_scripts/alphabets/results/unreviewed/6331451837349639561/0/grantha_24_6331451837349639561.png'
p851
aS'/afs/athena.mit.edu/user/j/g/jgross/web_scripts/alphabets/results/unreviewed/6331451837349639561/0/grantha_25_6331451837349639561.png'
p852
aS'/afs/athena.mit.edu/user/j/g/jgross/web_scripts/alphabets/results/unreviewed/6331451837349639561/0/grantha_26_6331451837349639561.png'
p853
aS'/afs/athena.mit.edu/user/j/g/jgross/web_scripts/alphabets/results/unreviewed/6331451837349639561/0/grantha_27_6331451837349639561.png'
p854
aS'/afs/athena.mit.edu/user/j/g/jgross/web_scripts/alphabets/results/unreviewed/6331451837349639561/0/grantha_28_6331451837349639561.png'
p855
aS'/afs/athena.mit.edu/user/j/g/jgross/web_scripts/alphabets/results/unreviewed/6331451837349639561/0/grantha_29_6331451837349639561.png'
p856
aS'/afs/athena.mit.edu/user/j/g/jgross/web_scripts/alphabets/results/unreviewed/6331451837349639561/0/grantha_30_6331451837349639561.png'
p857
aS'/afs/athena.mit.edu/user/j/g/jgross/web_scripts/alphabets/results/unreviewed/6331451837349639561/0/grantha_31_6331451837349639561.png'
p858
aS'/afs/athena.mit.edu/user/j/g/jgross/web_scripts/alphabets/results/unreviewed/6331451837349639561/0/grantha_32_6331451837349639561.png'
p859
aS'/afs/athena.mit.edu/user/j/g/jgross/web_scripts/alphabets/results/unreviewed/6331451837349639561/0/grantha_33_6331451837349639561.png'
p860
aS'/afs/athena.mit.edu/user/j/g/jgross/web_scripts/alphabets/results/unreviewed/6331451837349639561/0/grantha_34_6331451837349639561.png'
p861
aS'/afs/athena.mit.edu/user/j/g/jgross/web_scripts/alphabets/results/unreviewed/6331451837349639561/0/grantha_35_6331451837349639561.png'
p862
aS'/afs/athena.mit.edu/user/j/g/jgross/web_scripts/alphabets/results/unreviewed/6331451837349639561/0/grantha_36_6331451837349639561.png'
p863
aS'/afs/athena.mit.edu/user/j/g/jgross/web_scripts/alphabets/results/unreviewed/6331451837349639561/0/grantha_37_6331451837349639561.png'
p864
aS'/afs/athena.mit.edu/user/j/g/jgross/web_scripts/alphabets/results/unreviewed/6331451837349639561/0/grantha_38_6331451837349639561.png'
p865
aS'/afs/athena.mit.edu/user/j/g/jgross/web_scripts/alphabets/results/unreviewed/6331451837349639561/0/grantha_39_6331451837349639561.png'
p866
aS'/afs/athena.mit.edu/user/j/g/jgross/web_scripts/alphabets/results/unreviewed/6331451837349639561/0/grantha_40_6331451837349639561.png'
p867
aS'/afs/athena.mit.edu/user/j/g/jgross/web_scripts/alphabets/results/unreviewed/6331451837349639561/0/grantha_41_6331451837349639561.png'
p868
aS'/afs/athena.mit.edu/user/j/g/jgross/web_scripts/alphabets/results/unreviewed/6331451837349639561/0/grantha_42_6331451837349639561.png'
p869
aS'/afs/athena.mit.edu/user/j/g/jgross/web_scripts/alphabets/results/unreviewed/6331451837349639561/0/grantha_43_6331451837349639561.png'
p870
assS'hiragana'
p871
(dp872
S'-5919086782885901111'
p873
(lp874
S'/afs/athena.mit.edu/user/j/g/jgross/web_scripts/alphabets/results/unreviewed/m5919086782885901111/0/hiragana_01_-5919086782885901111.png'
p875
aS'/afs/athena.mit.edu/user/j/g/jgross/web_scripts/alphabets/results/unreviewed/m5919086782885901111/0/hiragana_02_-5919086782885901111.png'
p876
aS'/afs/athena.mit.edu/user/j/g/jgross/web_scripts/alphabets/results/unreviewed/m5919086782885901111/0/hiragana_03_-5919086782885901111.png'
p877
aS'/afs/athena.mit.edu/user/j/g/jgross/web_scripts/alphabets/results/unreviewed/m5919086782885901111/0/hiragana_04_-5919086782885901111.png'
p878
aS'/afs/athena.mit.edu/user/j/g/jgross/web_scripts/alphabets/results/unreviewed/m5919086782885901111/0/hiragana_05_-5919086782885901111.png'
p879
aS'/afs/athena.mit.edu/user/j/g/jgross/web_scripts/alphabets/results/unreviewed/m5919086782885901111/0/hiragana_06_-5919086782885901111.png'
p880
aS'/afs/athena.mit.edu/user/j/g/jgross/web_scripts/alphabets/results/unreviewed/m5919086782885901111/0/hiragana_07_-5919086782885901111.png'
p881
aS'/afs/athena.mit.edu/user/j/g/jgross/web_scripts/alphabets/results/unreviewed/m5919086782885901111/0/hiragana_08_-5919086782885901111.png'
p882
aS'/afs/athena.mit.edu/user/j/g/jgross/web_scripts/alphabets/results/unreviewed/m5919086782885901111/0/hiragana_09_-5919086782885901111.png'
p883
aS'/afs/athena.mit.edu/user/j/g/jgross/web_scripts/alphabets/results/unreviewed/m5919086782885901111/0/hiragana_10_-5919086782885901111.png'
p884
aS'/afs/athena.mit.edu/user/j/g/jgross/web_scripts/alphabets/results/unreviewed/m5919086782885901111/0/hiragana_11_-5919086782885901111.png'
p885
aS'/afs/athena.mit.edu/user/j/g/jgross/web_scripts/alphabets/results/unreviewed/m5919086782885901111/0/hiragana_12_-5919086782885901111.png'
p886
aS'/afs/athena.mit.edu/user/j/g/jgross/web_scripts/alphabets/results/unreviewed/m5919086782885901111/0/hiragana_13_-5919086782885901111.png'
p887
aS'/afs/athena.mit.edu/user/j/g/jgross/web_scripts/alphabets/results/unreviewed/m5919086782885901111/0/hiragana_14_-5919086782885901111.png'
p888
aS'/afs/athena.mit.edu/user/j/g/jgross/web_scripts/alphabets/results/unreviewed/m5919086782885901111/0/hiragana_15_-5919086782885901111.png'
p889
aS'/afs/athena.mit.edu/user/j/g/jgross/web_scripts/alphabets/results/unreviewed/m5919086782885901111/0/hiragana_16_-5919086782885901111.png'
p890
aS'/afs/athena.mit.edu/user/j/g/jgross/web_scripts/alphabets/results/unreviewed/m5919086782885901111/0/hiragana_17_-5919086782885901111.png'
p891
aS'/afs/athena.mit.edu/user/j/g/jgross/web_scripts/alphabets/results/unreviewed/m5919086782885901111/0/hiragana_18_-5919086782885901111.png'
p892
aS'/afs/athena.mit.edu/user/j/g/jgross/web_scripts/alphabets/results/unreviewed/m5919086782885901111/0/hiragana_19_-5919086782885901111.png'
p893
aS'/afs/athena.mit.edu/user/j/g/jgross/web_scripts/alphabets/results/unreviewed/m5919086782885901111/0/hiragana_20_-5919086782885901111.png'
p894
aS'/afs/athena.mit.edu/user/j/g/jgross/web_scripts/alphabets/results/unreviewed/m5919086782885901111/0/hiragana_21_-5919086782885901111.png'
p895
aS'/afs/athena.mit.edu/user/j/g/jgross/web_scripts/alphabets/results/unreviewed/m5919086782885901111/0/hiragana_22_-5919086782885901111.png'
p896
aS'/afs/athena.mit.edu/user/j/g/jgross/web_scripts/alphabets/results/unreviewed/m5919086782885901111/0/hiragana_23_-5919086782885901111.png'
p897
aS'/afs/athena.mit.edu/user/j/g/jgross/web_scripts/alphabets/results/unreviewed/m5919086782885901111/0/hiragana_24_-5919086782885901111.png'
p898
aS'/afs/athena.mit.edu/user/j/g/jgross/web_scripts/alphabets/results/unreviewed/m5919086782885901111/0/hiragana_25_-5919086782885901111.png'
p899
aS'/afs/athena.mit.edu/user/j/g/jgross/web_scripts/alphabets/results/unreviewed/m5919086782885901111/0/hiragana_26_-5919086782885901111.png'
p900
aS'/afs/athena.mit.edu/user/j/g/jgross/web_scripts/alphabets/results/unreviewed/m5919086782885901111/0/hiragana_27_-5919086782885901111.png'
p901
aS'/afs/athena.mit.edu/user/j/g/jgross/web_scripts/alphabets/results/unreviewed/m5919086782885901111/0/hiragana_28_-5919086782885901111.png'
p902
aS'/afs/athena.mit.edu/user/j/g/jgross/web_scripts/alphabets/results/unreviewed/m5919086782885901111/0/hiragana_29_-5919086782885901111.png'
p903
aS'/afs/athena.mit.edu/user/j/g/jgross/web_scripts/alphabets/results/unreviewed/m5919086782885901111/0/hiragana_30_-5919086782885901111.png'
p904
aS'/afs/athena.mit.edu/user/j/g/jgross/web_scripts/alphabets/results/unreviewed/m5919086782885901111/0/hiragana_31_-5919086782885901111.png'
p905
aS'/afs/athena.mit.edu/user/j/g/jgross/web_scripts/alphabets/results/unreviewed/m5919086782885901111/0/hiragana_32_-5919086782885901111.png'
p906
aS'/afs/athena.mit.edu/user/j/g/jgross/web_scripts/alphabets/results/unreviewed/m5919086782885901111/0/hiragana_33_-5919086782885901111.png'
p907
aS'/afs/athena.mit.edu/user/j/g/jgross/web_scripts/alphabets/results/unreviewed/m5919086782885901111/0/hiragana_34_-5919086782885901111.png'
p908
aS'/afs/athena.mit.edu/user/j/g/jgross/web_scripts/alphabets/results/unreviewed/m5919086782885901111/0/hiragana_35_-5919086782885901111.png'
p909
aS'/afs/athena.mit.edu/user/j/g/jgross/web_scripts/alphabets/results/unreviewed/m5919086782885901111/0/hiragana_36_-5919086782885901111.png'
p910
aS'/afs/athena.mit.edu/user/j/g/jgross/web_scripts/alphabets/results/unreviewed/m5919086782885901111/0/hiragana_37_-5919086782885901111.png'
p911
aS'/afs/athena.mit.edu/user/j/g/jgross/web_scripts/alphabets/results/unreviewed/m5919086782885901111/0/hiragana_38_-5919086782885901111.png'
p912
aS'/afs/athena.mit.edu/user/j/g/jgross/web_scripts/alphabets/results/unreviewed/m5919086782885901111/0/hiragana_39_-5919086782885901111.png'
p913
aS'/afs/athena.mit.edu/user/j/g/jgross/web_scripts/alphabets/results/unreviewed/m5919086782885901111/0/hiragana_40_-5919086782885901111.png'
p914
aS'/afs/athena.mit.edu/user/j/g/jgross/web_scripts/alphabets/results/unreviewed/m5919086782885901111/0/hiragana_41_-5919086782885901111.png'
p915
aS'/afs/athena.mit.edu/user/j/g/jgross/web_scripts/alphabets/results/unreviewed/m5919086782885901111/0/hiragana_42_-5919086782885901111.png'
p916
aS'/afs/athena.mit.edu/user/j/g/jgross/web_scripts/alphabets/results/unreviewed/m5919086782885901111/0/hiragana_43_-5919086782885901111.png'
p917
aS'/afs/athena.mit.edu/user/j/g/jgross/web_scripts/alphabets/results/unreviewed/m5919086782885901111/0/hiragana_44_-5919086782885901111.png'
p918
aS'/afs/athena.mit.edu/user/j/g/jgross/web_scripts/alphabets/results/unreviewed/m5919086782885901111/0/hiragana_45_-5919086782885901111.png'
p919
aS'/afs/athena.mit.edu/user/j/g/jgross/web_scripts/alphabets/results/unreviewed/m5919086782885901111/0/hiragana_46_-5919086782885901111.png'
p920
aS'/afs/athena.mit.edu/user/j/g/jgross/web_scripts/alphabets/results/unreviewed/m5919086782885901111/0/hiragana_47_-5919086782885901111.png'
p921
aS'/afs/athena.mit.edu/user/j/g/jgross/web_scripts/alphabets/results/unreviewed/m5919086782885901111/0/hiragana_48_-5919086782885901111.png'
p922
aS'/afs/athena.mit.edu/user/j/g/jgross/web_scripts/alphabets/results/unreviewed/m5919086782885901111/0/hiragana_49_-5919086782885901111.png'
p923
aS'/afs/athena.mit.edu/user/j/g/jgross/web_scripts/alphabets/results/unreviewed/m5919086782885901111/0/hiragana_50_-5919086782885901111.png'
p924
aS'/afs/athena.mit.edu/user/j/g/jgross/web_scripts/alphabets/results/unreviewed/m5919086782885901111/0/hiragana_51_-5919086782885901111.png'
p925
aS'/afs/athena.mit.edu/user/j/g/jgross/web_scripts/alphabets/results/unreviewed/m5919086782885901111/0/hiragana_52_-5919086782885901111.png'
p926
assS'magi'
p927
(dp928
S'763228222271624647'
p929
(lp930
S'/afs/athena.mit.edu/user/j/g/jgross/web_scripts/alphabets/results/unreviewed/763228222271624647/1/magi_01_763228222271624647.png'
p931
aS'/afs/athena.mit.edu/user/j/g/jgross/web_scripts/alphabets/results/unreviewed/763228222271624647/1/magi_02_763228222271624647.png'
p932
aS'/afs/athena.mit.edu/user/j/g/jgross/web_scripts/alphabets/results/unreviewed/763228222271624647/1/magi_03_763228222271624647.png'
p933
aS'/afs/athena.mit.edu/user/j/g/jgross/web_scripts/alphabets/results/unreviewed/763228222271624647/1/magi_04_763228222271624647.png'
p934
aS'/afs/athena.mit.edu/user/j/g/jgross/web_scripts/alphabets/results/unreviewed/763228222271624647/1/magi_05_763228222271624647.png'
p935
aS'/afs/athena.mit.edu/user/j/g/jgross/web_scripts/alphabets/results/unreviewed/763228222271624647/1/magi_06_763228222271624647.png'
p936
aS'/afs/athena.mit.edu/user/j/g/jgross/web_scripts/alphabets/results/unreviewed/763228222271624647/1/magi_07_763228222271624647.png'
p937
aS'/afs/athena.mit.edu/user/j/g/jgross/web_scripts/alphabets/results/unreviewed/763228222271624647/1/magi_08_763228222271624647.png'
p938
aS'/afs/athena.mit.edu/user/j/g/jgross/web_scripts/alphabets/results/unreviewed/763228222271624647/1/magi_09_763228222271624647.png'
p939
aS'/afs/athena.mit.edu/user/j/g/jgross/web_scripts/alphabets/results/unreviewed/763228222271624647/1/magi_10_763228222271624647.png'
p940
aS'/afs/athena.mit.edu/user/j/g/jgross/web_scripts/alphabets/results/unreviewed/763228222271624647/1/magi_11_763228222271624647.png'
p941
aS'/afs/athena.mit.edu/user/j/g/jgross/web_scripts/alphabets/results/unreviewed/763228222271624647/1/magi_12_763228222271624647.png'
p942
aS'/afs/athena.mit.edu/user/j/g/jgross/web_scripts/alphabets/results/unreviewed/763228222271624647/1/magi_13_763228222271624647.png'
p943
aS'/afs/athena.mit.edu/user/j/g/jgross/web_scripts/alphabets/results/unreviewed/763228222271624647/1/magi_14_763228222271624647.png'
p944
aS'/afs/athena.mit.edu/user/j/g/jgross/web_scripts/alphabets/results/unreviewed/763228222271624647/1/magi_15_763228222271624647.png'
p945
aS'/afs/athena.mit.edu/user/j/g/jgross/web_scripts/alphabets/results/unreviewed/763228222271624647/1/magi_16_763228222271624647.png'
p946
aS'/afs/athena.mit.edu/user/j/g/jgross/web_scripts/alphabets/results/unreviewed/763228222271624647/1/magi_17_763228222271624647.png'
p947
aS'/afs/athena.mit.edu/user/j/g/jgross/web_scripts/alphabets/results/unreviewed/763228222271624647/1/magi_18_763228222271624647.png'
p948
aS'/afs/athena.mit.edu/user/j/g/jgross/web_scripts/alphabets/results/unreviewed/763228222271624647/1/magi_19_763228222271624647.png'
p949
aS'/afs/athena.mit.edu/user/j/g/jgross/web_scripts/alphabets/results/unreviewed/763228222271624647/1/magi_20_763228222271624647.png'
p950
asS'-5099292847233301385'
p951
(lp952
S'/afs/athena.mit.edu/user/j/g/jgross/web_scripts/alphabets/results/unreviewed/m5099292847233301385/0/magi_01_-5099292847233301385.png'
p953
aS'/afs/athena.mit.edu/user/j/g/jgross/web_scripts/alphabets/results/unreviewed/m5099292847233301385/0/magi_02_-5099292847233301385.png'
p954
aS'/afs/athena.mit.edu/user/j/g/jgross/web_scripts/alphabets/results/unreviewed/m5099292847233301385/0/magi_03_-5099292847233301385.png'
p955
aS'/afs/athena.mit.edu/user/j/g/jgross/web_scripts/alphabets/results/unreviewed/m5099292847233301385/0/magi_04_-5099292847233301385.png'
p956
aS'/afs/athena.mit.edu/user/j/g/jgross/web_scripts/alphabets/results/unreviewed/m5099292847233301385/0/magi_05_-5099292847233301385.png'
p957
aS'/afs/athena.mit.edu/user/j/g/jgross/web_scripts/alphabets/results/unreviewed/m5099292847233301385/0/magi_06_-5099292847233301385.png'
p958
aS'/afs/athena.mit.edu/user/j/g/jgross/web_scripts/alphabets/results/unreviewed/m5099292847233301385/0/magi_07_-5099292847233301385.png'
p959
aS'/afs/athena.mit.edu/user/j/g/jgross/web_scripts/alphabets/results/unreviewed/m5099292847233301385/0/magi_08_-5099292847233301385.png'
p960
aS'/afs/athena.mit.edu/user/j/g/jgross/web_scripts/alphabets/results/unreviewed/m5099292847233301385/0/magi_09_-5099292847233301385.png'
p961
aS'/afs/athena.mit.edu/user/j/g/jgross/web_scripts/alphabets/results/unreviewed/m5099292847233301385/0/magi_10_-5099292847233301385.png'
p962
aS'/afs/athena.mit.edu/user/j/g/jgross/web_scripts/alphabets/results/unreviewed/m5099292847233301385/0/magi_11_-5099292847233301385.png'
p963
aS'/afs/athena.mit.edu/user/j/g/jgross/web_scripts/alphabets/results/unreviewed/m5099292847233301385/0/magi_12_-5099292847233301385.png'
p964
aS'/afs/athena.mit.edu/user/j/g/jgross/web_scripts/alphabets/results/unreviewed/m5099292847233301385/0/magi_13_-5099292847233301385.png'
p965
aS'/afs/athena.mit.edu/user/j/g/jgross/web_scripts/alphabets/results/unreviewed/m5099292847233301385/0/magi_14_-5099292847233301385.png'
p966
aS'/afs/athena.mit.edu/user/j/g/jgross/web_scripts/alphabets/results/unreviewed/m5099292847233301385/0/magi_15_-5099292847233301385.png'
p967
aS'/afs/athena.mit.edu/user/j/g/jgross/web_scripts/alphabets/results/unreviewed/m5099292847233301385/0/magi_16_-5099292847233301385.png'
p968
aS'/afs/athena.mit.edu/user/j/g/jgross/web_scripts/alphabets/results/unreviewed/m5099292847233301385/0/magi_17_-5099292847233301385.png'
p969
aS'/afs/athena.mit.edu/user/j/g/jgross/web_scripts/alphabets/results/unreviewed/m5099292847233301385/0/magi_18_-5099292847233301385.png'
p970
aS'/afs/athena.mit.edu/user/j/g/jgross/web_scripts/alphabets/results/unreviewed/m5099292847233301385/0/magi_19_-5099292847233301385.png'
p971
aS'/afs/athena.mit.edu/user/j/g/jgross/web_scripts/alphabets/results/unreviewed/m5099292847233301385/0/magi_20_-5099292847233301385.png'
p972
assS'old_hylian'
p973
(dp974
S'763228222271624647'
p975
(lp976
S'/afs/athena.mit.edu/user/j/g/jgross/web_scripts/alphabets/results/unreviewed/763228222271624647/0/old_hylian_01_763228222271624647.png'
p977
aS'/afs/athena.mit.edu/user/j/g/jgross/web_scripts/alphabets/results/unreviewed/763228222271624647/0/old_hylian_02_763228222271624647.png'
p978
aS'/afs/athena.mit.edu/user/j/g/jgross/web_scripts/alphabets/results/unreviewed/763228222271624647/0/old_hylian_03_763228222271624647.png'
p979
aS'/afs/athena.mit.edu/user/j/g/jgross/web_scripts/alphabets/results/unreviewed/763228222271624647/0/old_hylian_04_763228222271624647.png'
p980
aS'/afs/athena.mit.edu/user/j/g/jgross/web_scripts/alphabets/results/unreviewed/763228222271624647/0/old_hylian_05_763228222271624647.png'
p981
aS'/afs/athena.mit.edu/user/j/g/jgross/web_scripts/alphabets/results/unreviewed/763228222271624647/0/old_hylian_06_763228222271624647.png'
p982
aS'/afs/athena.mit.edu/user/j/g/jgross/web_scripts/alphabets/results/unreviewed/763228222271624647/0/old_hylian_07_763228222271624647.png'
p983
aS'/afs/athena.mit.edu/user/j/g/jgross/web_scripts/alphabets/results/unreviewed/763228222271624647/0/old_hylian_08_763228222271624647.png'
p984
aS'/afs/athena.mit.edu/user/j/g/jgross/web_scripts/alphabets/results/unreviewed/763228222271624647/0/old_hylian_09_763228222271624647.png'
p985
aS'/afs/athena.mit.edu/user/j/g/jgross/web_scripts/alphabets/results/unreviewed/763228222271624647/0/old_hylian_10_763228222271624647.png'
p986
aS'/afs/athena.mit.edu/user/j/g/jgross/web_scripts/alphabets/results/unreviewed/763228222271624647/0/old_hylian_11_763228222271624647.png'
p987
aS'/afs/athena.mit.edu/user/j/g/jgross/web_scripts/alphabets/results/unreviewed/763228222271624647/0/old_hylian_12_763228222271624647.png'
p988
aS'/afs/athena.mit.edu/user/j/g/jgross/web_scripts/alphabets/results/unreviewed/763228222271624647/0/old_hylian_13_763228222271624647.png'
p989
aS'/afs/athena.mit.edu/user/j/g/jgross/web_scripts/alphabets/results/unreviewed/763228222271624647/0/old_hylian_14_763228222271624647.png'
p990
aS'/afs/athena.mit.edu/user/j/g/jgross/web_scripts/alphabets/results/unreviewed/763228222271624647/0/old_hylian_15_763228222271624647.png'
p991
aS'/afs/athena.mit.edu/user/j/g/jgross/web_scripts/alphabets/results/unreviewed/763228222271624647/0/old_hylian_16_763228222271624647.png'
p992
aS'/afs/athena.mit.edu/user/j/g/jgross/web_scripts/alphabets/results/unreviewed/763228222271624647/0/old_hylian_17_763228222271624647.png'
p993
aS'/afs/athena.mit.edu/user/j/g/jgross/web_scripts/alphabets/results/unreviewed/763228222271624647/0/old_hylian_18_763228222271624647.png'
p994
aS'/afs/athena.mit.edu/user/j/g/jgross/web_scripts/alphabets/results/unreviewed/763228222271624647/0/old_hylian_19_763228222271624647.png'
p995
aS'/afs/athena.mit.edu/user/j/g/jgross/web_scripts/alphabets/results/unreviewed/763228222271624647/0/old_hylian_20_763228222271624647.png'
p996
aS'/afs/athena.mit.edu/user/j/g/jgross/web_scripts/alphabets/results/unreviewed/763228222271624647/0/old_hylian_21_763228222271624647.png'
p997
aS'/afs/athena.mit.edu/user/j/g/jgross/web_scripts/alphabets/results/unreviewed/763228222271624647/0/old_hylian_22_763228222271624647.png'
p998
aS'/afs/athena.mit.edu/user/j/g/jgross/web_scripts/alphabets/results/unreviewed/763228222271624647/0/old_hylian_23_763228222271624647.png'
p999
aS'/afs/athena.mit.edu/user/j/g/jgross/web_scripts/alphabets/results/unreviewed/763228222271624647/0/old_hylian_24_763228222271624647.png'
p1000
aS'/afs/athena.mit.edu/user/j/g/jgross/web_scripts/alphabets/results/unreviewed/763228222271624647/0/old_hylian_25_763228222271624647.png'
p1001
aS'/afs/athena.mit.edu/user/j/g/jgross/web_scripts/alphabets/results/unreviewed/763228222271624647/0/old_hylian_26_763228222271624647.png'
p1002
assS'serto'
p1003
(dp1004
S'-6933527752756115883'
p1005
(lp1006
S'/afs/athena.mit.edu/user/j/g/jgross/web_scripts/alphabets/results/unreviewed/m6933527752756115883/0/serto_01_-6933527752756115883.png'
p1007
aS'/afs/athena.mit.edu/user/j/g/jgross/web_scripts/alphabets/results/unreviewed/m6933527752756115883/0/serto_02_-6933527752756115883.png'
p1008
aS'/afs/athena.mit.edu/user/j/g/jgross/web_scripts/alphabets/results/unreviewed/m6933527752756115883/0/serto_03_-6933527752756115883.png'
p1009
aS'/afs/athena.mit.edu/user/j/g/jgross/web_scripts/alphabets/results/unreviewed/m6933527752756115883/0/serto_04_-6933527752756115883.png'
p1010
aS'/afs/athena.mit.edu/user/j/g/jgross/web_scripts/alphabets/results/unreviewed/m6933527752756115883/0/serto_05_-6933527752756115883.png'
p1011
aS'/afs/athena.mit.edu/user/j/g/jgross/web_scripts/alphabets/results/unreviewed/m6933527752756115883/0/serto_06_-6933527752756115883.png'
p1012
aS'/afs/athena.mit.edu/user/j/g/jgross/web_scripts/alphabets/results/unreviewed/m6933527752756115883/0/serto_07_-6933527752756115883.png'
p1013
aS'/afs/athena.mit.edu/user/j/g/jgross/web_scripts/alphabets/results/unreviewed/m6933527752756115883/0/serto_08_-6933527752756115883.png'
p1014
aS'/afs/athena.mit.edu/user/j/g/jgross/web_scripts/alphabets/results/unreviewed/m6933527752756115883/0/serto_09_-6933527752756115883.png'
p1015
aS'/afs/athena.mit.edu/user/j/g/jgross/web_scripts/alphabets/results/unreviewed/m6933527752756115883/0/serto_10_-6933527752756115883.png'
p1016
aS'/afs/athena.mit.edu/user/j/g/jgross/web_scripts/alphabets/results/unreviewed/m6933527752756115883/0/serto_11_-6933527752756115883.png'
p1017
aS'/afs/athena.mit.edu/user/j/g/jgross/web_scripts/alphabets/results/unreviewed/m6933527752756115883/0/serto_12_-6933527752756115883.png'
p1018
aS'/afs/athena.mit.edu/user/j/g/jgross/web_scripts/alphabets/results/unreviewed/m6933527752756115883/0/serto_13_-6933527752756115883.png'
p1019
aS'/afs/athena.mit.edu/user/j/g/jgross/web_scripts/alphabets/results/unreviewed/m6933527752756115883/0/serto_14_-6933527752756115883.png'
p1020
aS'/afs/athena.mit.edu/user/j/g/jgross/web_scripts/alphabets/results/unreviewed/m6933527752756115883/0/serto_15_-6933527752756115883.png'
p1021
aS'/afs/athena.mit.edu/user/j/g/jgross/web_scripts/alphabets/results/unreviewed/m6933527752756115883/0/serto_16_-6933527752756115883.png'
p1022
aS'/afs/athena.mit.edu/user/j/g/jgross/web_scripts/alphabets/results/unreviewed/m6933527752756115883/0/serto_17_-6933527752756115883.png'
p1023
aS'/afs/athena.mit.edu/user/j/g/jgross/web_scripts/alphabets/results/unreviewed/m6933527752756115883/0/serto_18_-6933527752756115883.png'
p1024
aS'/afs/athena.mit.edu/user/j/g/jgross/web_scripts/alphabets/results/unreviewed/m6933527752756115883/0/serto_19_-6933527752756115883.png'
p1025
aS'/afs/athena.mit.edu/user/j/g/jgross/web_scripts/alphabets/results/unreviewed/m6933527752756115883/0/serto_20_-6933527752756115883.png'
p1026
aS'/afs/athena.mit.edu/user/j/g/jgross/web_scripts/alphabets/results/unreviewed/m6933527752756115883/0/serto_21_-6933527752756115883.png'
p1027
aS'/afs/athena.mit.edu/user/j/g/jgross/web_scripts/alphabets/results/unreviewed/m6933527752756115883/0/serto_22_-6933527752756115883.png'
p1028
aS'/afs/athena.mit.edu/user/j/g/jgross/web_scripts/alphabets/results/unreviewed/m6933527752756115883/0/serto_23_-6933527752756115883.png'
p1029
assS'ojibwe'
p1030
(dp1031
S'2614585767518764713'
p1032
(lp1033
S'/afs/athena.mit.edu/user/j/g/jgross/web_scripts/alphabets/results/unreviewed/2614585767518764713/0/ojibwe_01_2614585767518764713.png'
p1034
aS'/afs/athena.mit.edu/user/j/g/jgross/web_scripts/alphabets/results/unreviewed/2614585767518764713/0/ojibwe_02_2614585767518764713.png'
p1035
aS'/afs/athena.mit.edu/user/j/g/jgross/web_scripts/alphabets/results/unreviewed/2614585767518764713/0/ojibwe_03_2614585767518764713.png'
p1036
aS'/afs/athena.mit.edu/user/j/g/jgross/web_scripts/alphabets/results/unreviewed/2614585767518764713/0/ojibwe_04_2614585767518764713.png'
p1037
aS'/afs/athena.mit.edu/user/j/g/jgross/web_scripts/alphabets/results/unreviewed/2614585767518764713/0/ojibwe_05_2614585767518764713.png'
p1038
aS'/afs/athena.mit.edu/user/j/g/jgross/web_scripts/alphabets/results/unreviewed/2614585767518764713/0/ojibwe_06_2614585767518764713.png'
p1039
aS'/afs/athena.mit.edu/user/j/g/jgross/web_scripts/alphabets/results/unreviewed/2614585767518764713/0/ojibwe_07_2614585767518764713.png'
p1040
aS'/afs/athena.mit.edu/user/j/g/jgross/web_scripts/alphabets/results/unreviewed/2614585767518764713/0/ojibwe_08_2614585767518764713.png'
p1041
aS'/afs/athena.mit.edu/user/j/g/jgross/web_scripts/alphabets/results/unreviewed/2614585767518764713/0/ojibwe_09_2614585767518764713.png'
p1042
aS'/afs/athena.mit.edu/user/j/g/jgross/web_scripts/alphabets/results/unreviewed/2614585767518764713/0/ojibwe_10_2614585767518764713.png'
p1043
aS'/afs/athena.mit.edu/user/j/g/jgross/web_scripts/alphabets/results/unreviewed/2614585767518764713/0/ojibwe_11_2614585767518764713.png'
p1044
aS'/afs/athena.mit.edu/user/j/g/jgross/web_scripts/alphabets/results/unreviewed/2614585767518764713/0/ojibwe_12_2614585767518764713.png'
p1045
aS'/afs/athena.mit.edu/user/j/g/jgross/web_scripts/alphabets/results/unreviewed/2614585767518764713/0/ojibwe_13_2614585767518764713.png'
p1046
aS'/afs/athena.mit.edu/user/j/g/jgross/web_scripts/alphabets/results/unreviewed/2614585767518764713/0/ojibwe_14_2614585767518764713.png'
p1047
assS'armenian'
p1048
(dp1049
S'2672823981235464238'
p1050
(lp1051
S'/afs/athena.mit.edu/user/j/g/jgross/web_scripts/alphabets/results/unreviewed/2672823981235464238/0/armenian_01_2672823981235464238.png'
p1052
aS'/afs/athena.mit.edu/user/j/g/jgross/web_scripts/alphabets/results/unreviewed/2672823981235464238/0/armenian_02_2672823981235464238.png'
p1053
aS'/afs/athena.mit.edu/user/j/g/jgross/web_scripts/alphabets/results/unreviewed/2672823981235464238/0/armenian_03_2672823981235464238.png'
p1054
aS'/afs/athena.mit.edu/user/j/g/jgross/web_scripts/alphabets/results/unreviewed/2672823981235464238/0/armenian_04_2672823981235464238.png'
p1055
aS'/afs/athena.mit.edu/user/j/g/jgross/web_scripts/alphabets/results/unreviewed/2672823981235464238/0/armenian_05_2672823981235464238.png'
p1056
aS'/afs/athena.mit.edu/user/j/g/jgross/web_scripts/alphabets/results/unreviewed/2672823981235464238/0/armenian_06_2672823981235464238.png'
p1057
aS'/afs/athena.mit.edu/user/j/g/jgross/web_scripts/alphabets/results/unreviewed/2672823981235464238/0/armenian_07_2672823981235464238.png'
p1058
aS'/afs/athena.mit.edu/user/j/g/jgross/web_scripts/alphabets/results/unreviewed/2672823981235464238/0/armenian_08_2672823981235464238.png'
p1059
aS'/afs/athena.mit.edu/user/j/g/jgross/web_scripts/alphabets/results/unreviewed/2672823981235464238/0/armenian_09_2672823981235464238.png'
p1060
aS'/afs/athena.mit.edu/user/j/g/jgross/web_scripts/alphabets/results/unreviewed/2672823981235464238/0/armenian_10_2672823981235464238.png'
p1061
aS'/afs/athena.mit.edu/user/j/g/jgross/web_scripts/alphabets/results/unreviewed/2672823981235464238/0/armenian_11_2672823981235464238.png'
p1062
aS'/afs/athena.mit.edu/user/j/g/jgross/web_scripts/alphabets/results/unreviewed/2672823981235464238/0/armenian_12_2672823981235464238.png'
p1063
aS'/afs/athena.mit.edu/user/j/g/jgross/web_scripts/alphabets/results/unreviewed/2672823981235464238/0/armenian_13_2672823981235464238.png'
p1064
aS'/afs/athena.mit.edu/user/j/g/jgross/web_scripts/alphabets/results/unreviewed/2672823981235464238/0/armenian_14_2672823981235464238.png'
p1065
aS'/afs/athena.mit.edu/user/j/g/jgross/web_scripts/alphabets/results/unreviewed/2672823981235464238/0/armenian_15_2672823981235464238.png'
p1066
aS'/afs/athena.mit.edu/user/j/g/jgross/web_scripts/alphabets/results/unreviewed/2672823981235464238/0/armenian_16_2672823981235464238.png'
p1067
aS'/afs/athena.mit.edu/user/j/g/jgross/web_scripts/alphabets/results/unreviewed/2672823981235464238/0/armenian_17_2672823981235464238.png'
p1068
aS'/afs/athena.mit.edu/user/j/g/jgross/web_scripts/alphabets/results/unreviewed/2672823981235464238/0/armenian_18_2672823981235464238.png'
p1069
aS'/afs/athena.mit.edu/user/j/g/jgross/web_scripts/alphabets/results/unreviewed/2672823981235464238/0/armenian_19_2672823981235464238.png'
p1070
aS'/afs/athena.mit.edu/user/j/g/jgross/web_scripts/alphabets/results/unreviewed/2672823981235464238/0/armenian_20_2672823981235464238.png'
p1071
aS'/afs/athena.mit.edu/user/j/g/jgross/web_scripts/alphabets/results/unreviewed/2672823981235464238/0/armenian_21_2672823981235464238.png'
p1072
aS'/afs/athena.mit.edu/user/j/g/jgross/web_scripts/alphabets/results/unreviewed/2672823981235464238/0/armenian_22_2672823981235464238.png'
p1073
aS'/afs/athena.mit.edu/user/j/g/jgross/web_scripts/alphabets/results/unreviewed/2672823981235464238/0/armenian_23_2672823981235464238.png'
p1074
aS'/afs/athena.mit.edu/user/j/g/jgross/web_scripts/alphabets/results/unreviewed/2672823981235464238/0/armenian_24_2672823981235464238.png'
p1075
aS'/afs/athena.mit.edu/user/j/g/jgross/web_scripts/alphabets/results/unreviewed/2672823981235464238/0/armenian_25_2672823981235464238.png'
p1076
aS'/afs/athena.mit.edu/user/j/g/jgross/web_scripts/alphabets/results/unreviewed/2672823981235464238/0/armenian_26_2672823981235464238.png'
p1077
aS'/afs/athena.mit.edu/user/j/g/jgross/web_scripts/alphabets/results/unreviewed/2672823981235464238/0/armenian_27_2672823981235464238.png'
p1078
aS'/afs/athena.mit.edu/user/j/g/jgross/web_scripts/alphabets/results/unreviewed/2672823981235464238/0/armenian_28_2672823981235464238.png'
p1079
aS'/afs/athena.mit.edu/user/j/g/jgross/web_scripts/alphabets/results/unreviewed/2672823981235464238/0/armenian_29_2672823981235464238.png'
p1080
aS'/afs/athena.mit.edu/user/j/g/jgross/web_scripts/alphabets/results/unreviewed/2672823981235464238/0/armenian_30_2672823981235464238.png'
p1081
aS'/afs/athena.mit.edu/user/j/g/jgross/web_scripts/alphabets/results/unreviewed/2672823981235464238/0/armenian_31_2672823981235464238.png'
p1082
aS'/afs/athena.mit.edu/user/j/g/jgross/web_scripts/alphabets/results/unreviewed/2672823981235464238/0/armenian_32_2672823981235464238.png'
p1083
aS'/afs/athena.mit.edu/user/j/g/jgross/web_scripts/alphabets/results/unreviewed/2672823981235464238/0/armenian_33_2672823981235464238.png'
p1084
aS'/afs/athena.mit.edu/user/j/g/jgross/web_scripts/alphabets/results/unreviewed/2672823981235464238/0/armenian_34_2672823981235464238.png'
p1085
aS'/afs/athena.mit.edu/user/j/g/jgross/web_scripts/alphabets/results/unreviewed/2672823981235464238/0/armenian_35_2672823981235464238.png'
p1086
aS'/afs/athena.mit.edu/user/j/g/jgross/web_scripts/alphabets/results/unreviewed/2672823981235464238/0/armenian_36_2672823981235464238.png'
p1087
aS'/afs/athena.mit.edu/user/j/g/jgross/web_scripts/alphabets/results/unreviewed/2672823981235464238/0/armenian_37_2672823981235464238.png'
p1088
aS'/afs/athena.mit.edu/user/j/g/jgross/web_scripts/alphabets/results/unreviewed/2672823981235464238/0/armenian_38_2672823981235464238.png'
p1089
aS'/afs/athena.mit.edu/user/j/g/jgross/web_scripts/alphabets/results/unreviewed/2672823981235464238/0/armenian_39_2672823981235464238.png'
p1090
aS'/afs/athena.mit.edu/user/j/g/jgross/web_scripts/alphabets/results/unreviewed/2672823981235464238/0/armenian_40_2672823981235464238.png'
p1091
aS'/afs/athena.mit.edu/user/j/g/jgross/web_scripts/alphabets/results/unreviewed/2672823981235464238/0/armenian_41_2672823981235464238.png'
p1092
assS'mkhedruli'
p1093
(dp1094
S'-8932567387632894297'
p1095
(lp1096
S'/afs/athena.mit.edu/user/j/g/jgross/web_scripts/alphabets/results/unreviewed/m8932567387632894297/0/mkhedruli_01_-8932567387632894297.png'
p1097
aS'/afs/athena.mit.edu/user/j/g/jgross/web_scripts/alphabets/results/unreviewed/m8932567387632894297/0/mkhedruli_02_-8932567387632894297.png'
p1098
aS'/afs/athena.mit.edu/user/j/g/jgross/web_scripts/alphabets/results/unreviewed/m8932567387632894297/0/mkhedruli_03_-8932567387632894297.png'
p1099
aS'/afs/athena.mit.edu/user/j/g/jgross/web_scripts/alphabets/results/unreviewed/m8932567387632894297/0/mkhedruli_04_-8932567387632894297.png'
p1100
aS'/afs/athena.mit.edu/user/j/g/jgross/web_scripts/alphabets/results/unreviewed/m8932567387632894297/0/mkhedruli_05_-8932567387632894297.png'
p1101
aS'/afs/athena.mit.edu/user/j/g/jgross/web_scripts/alphabets/results/unreviewed/m8932567387632894297/0/mkhedruli_06_-8932567387632894297.png'
p1102
aS'/afs/athena.mit.edu/user/j/g/jgross/web_scripts/alphabets/results/unreviewed/m8932567387632894297/0/mkhedruli_07_-8932567387632894297.png'
p1103
aS'/afs/athena.mit.edu/user/j/g/jgross/web_scripts/alphabets/results/unreviewed/m8932567387632894297/0/mkhedruli_08_-8932567387632894297.png'
p1104
aS'/afs/athena.mit.edu/user/j/g/jgross/web_scripts/alphabets/results/unreviewed/m8932567387632894297/0/mkhedruli_09_-8932567387632894297.png'
p1105
aS'/afs/athena.mit.edu/user/j/g/jgross/web_scripts/alphabets/results/unreviewed/m8932567387632894297/0/mkhedruli_10_-8932567387632894297.png'
p1106
aS'/afs/athena.mit.edu/user/j/g/jgross/web_scripts/alphabets/results/unreviewed/m8932567387632894297/0/mkhedruli_11_-8932567387632894297.png'
p1107
aS'/afs/athena.mit.edu/user/j/g/jgross/web_scripts/alphabets/results/unreviewed/m8932567387632894297/0/mkhedruli_12_-8932567387632894297.png'
p1108
aS'/afs/athena.mit.edu/user/j/g/jgross/web_scripts/alphabets/results/unreviewed/m8932567387632894297/0/mkhedruli_13_-8932567387632894297.png'
p1109
aS'/afs/athena.mit.edu/user/j/g/jgross/web_scripts/alphabets/results/unreviewed/m8932567387632894297/0/mkhedruli_14_-8932567387632894297.png'
p1110
aS'/afs/athena.mit.edu/user/j/g/jgross/web_scripts/alphabets/results/unreviewed/m8932567387632894297/0/mkhedruli_15_-8932567387632894297.png'
p1111
aS'/afs/athena.mit.edu/user/j/g/jgross/web_scripts/alphabets/results/unreviewed/m8932567387632894297/0/mkhedruli_16_-8932567387632894297.png'
p1112
aS'/afs/athena.mit.edu/user/j/g/jgross/web_scripts/alphabets/results/unreviewed/m8932567387632894297/0/mkhedruli_17_-8932567387632894297.png'
p1113
aS'/afs/athena.mit.edu/user/j/g/jgross/web_scripts/alphabets/results/unreviewed/m8932567387632894297/0/mkhedruli_18_-8932567387632894297.png'
p1114
aS'/afs/athena.mit.edu/user/j/g/jgross/web_scripts/alphabets/results/unreviewed/m8932567387632894297/0/mkhedruli_19_-8932567387632894297.png'
p1115
aS'/afs/athena.mit.edu/user/j/g/jgross/web_scripts/alphabets/results/unreviewed/m8932567387632894297/0/mkhedruli_20_-8932567387632894297.png'
p1116
aS'/afs/athena.mit.edu/user/j/g/jgross/web_scripts/alphabets/results/unreviewed/m8932567387632894297/0/mkhedruli_21_-8932567387632894297.png'
p1117
aS'/afs/athena.mit.edu/user/j/g/jgross/web_scripts/alphabets/results/unreviewed/m8932567387632894297/0/mkhedruli_22_-8932567387632894297.png'
p1118
aS'/afs/athena.mit.edu/user/j/g/jgross/web_scripts/alphabets/results/unreviewed/m8932567387632894297/0/mkhedruli_23_-8932567387632894297.png'
p1119
aS'/afs/athena.mit.edu/user/j/g/jgross/web_scripts/alphabets/results/unreviewed/m8932567387632894297/0/mkhedruli_24_-8932567387632894297.png'
p1120
aS'/afs/athena.mit.edu/user/j/g/jgross/web_scripts/alphabets/results/unreviewed/m8932567387632894297/0/mkhedruli_25_-8932567387632894297.png'
p1121
aS'/afs/athena.mit.edu/user/j/g/jgross/web_scripts/alphabets/results/unreviewed/m8932567387632894297/0/mkhedruli_26_-8932567387632894297.png'
p1122
aS'/afs/athena.mit.edu/user/j/g/jgross/web_scripts/alphabets/results/unreviewed/m8932567387632894297/0/mkhedruli_27_-8932567387632894297.png'
p1123
aS'/afs/athena.mit.edu/user/j/g/jgross/web_scripts/alphabets/results/unreviewed/m8932567387632894297/0/mkhedruli_28_-8932567387632894297.png'
p1124
aS'/afs/athena.mit.edu/user/j/g/jgross/web_scripts/alphabets/results/unreviewed/m8932567387632894297/0/mkhedruli_29_-8932567387632894297.png'
p1125
aS'/afs/athena.mit.edu/user/j/g/jgross/web_scripts/alphabets/results/unreviewed/m8932567387632894297/0/mkhedruli_30_-8932567387632894297.png'
p1126
aS'/afs/athena.mit.edu/user/j/g/jgross/web_scripts/alphabets/results/unreviewed/m8932567387632894297/0/mkhedruli_31_-8932567387632894297.png'
p1127
aS'/afs/athena.mit.edu/user/j/g/jgross/web_scripts/alphabets/results/unreviewed/m8932567387632894297/0/mkhedruli_32_-8932567387632894297.png'
p1128
aS'/afs/athena.mit.edu/user/j/g/jgross/web_scripts/alphabets/results/unreviewed/m8932567387632894297/0/mkhedruli_33_-8932567387632894297.png'
p1129
aS'/afs/athena.mit.edu/user/j/g/jgross/web_scripts/alphabets/results/unreviewed/m8932567387632894297/0/mkhedruli_34_-8932567387632894297.png'
p1130
aS'/afs/athena.mit.edu/user/j/g/jgross/web_scripts/alphabets/results/unreviewed/m8932567387632894297/0/mkhedruli_35_-8932567387632894297.png'
p1131
aS'/afs/athena.mit.edu/user/j/g/jgross/web_scripts/alphabets/results/unreviewed/m8932567387632894297/0/mkhedruli_36_-8932567387632894297.png'
p1132
aS'/afs/athena.mit.edu/user/j/g/jgross/web_scripts/alphabets/results/unreviewed/m8932567387632894297/0/mkhedruli_37_-8932567387632894297.png'
p1133
aS'/afs/athena.mit.edu/user/j/g/jgross/web_scripts/alphabets/results/unreviewed/m8932567387632894297/0/mkhedruli_38_-8932567387632894297.png'
p1134
aS'/afs/athena.mit.edu/user/j/g/jgross/web_scripts/alphabets/results/unreviewed/m8932567387632894297/0/mkhedruli_39_-8932567387632894297.png'
p1135
aS'/afs/athena.mit.edu/user/j/g/jgross/web_scripts/alphabets/results/unreviewed/m8932567387632894297/0/mkhedruli_40_-8932567387632894297.png'
p1136
aS'/afs/athena.mit.edu/user/j/g/jgross/web_scripts/alphabets/results/unreviewed/m8932567387632894297/0/mkhedruli_41_-8932567387632894297.png'
p1137
assS'old_cyrillic'
p1138
(dp1139
S'-4270596287226275669'
p1140
(lp1141
S'/afs/athena.mit.edu/user/j/g/jgross/web_scripts/alphabets/results/unreviewed/m4270596287226275669/0/old_cyrillic_01_-4270596287226275669.png'
p1142
aS'/afs/athena.mit.edu/user/j/g/jgross/web_scripts/alphabets/results/unreviewed/m4270596287226275669/0/old_cyrillic_02_-4270596287226275669.png'
p1143
aS'/afs/athena.mit.edu/user/j/g/jgross/web_scripts/alphabets/results/unreviewed/m4270596287226275669/0/old_cyrillic_03_-4270596287226275669.png'
p1144
aS'/afs/athena.mit.edu/user/j/g/jgross/web_scripts/alphabets/results/unreviewed/m4270596287226275669/0/old_cyrillic_04_-4270596287226275669.png'
p1145
aS'/afs/athena.mit.edu/user/j/g/jgross/web_scripts/alphabets/results/unreviewed/m4270596287226275669/0/old_cyrillic_05_-4270596287226275669.png'
p1146
aS'/afs/athena.mit.edu/user/j/g/jgross/web_scripts/alphabets/results/unreviewed/m4270596287226275669/0/old_cyrillic_06_-4270596287226275669.png'
p1147
aS'/afs/athena.mit.edu/user/j/g/jgross/web_scripts/alphabets/results/unreviewed/m4270596287226275669/0/old_cyrillic_07_-4270596287226275669.png'
p1148
aS'/afs/athena.mit.edu/user/j/g/jgross/web_scripts/alphabets/results/unreviewed/m4270596287226275669/0/old_cyrillic_08_-4270596287226275669.png'
p1149
aS'/afs/athena.mit.edu/user/j/g/jgross/web_scripts/alphabets/results/unreviewed/m4270596287226275669/0/old_cyrillic_09_-4270596287226275669.png'
p1150
aS'/afs/athena.mit.edu/user/j/g/jgross/web_scripts/alphabets/results/unreviewed/m4270596287226275669/0/old_cyrillic_10_-4270596287226275669.png'
p1151
aS'/afs/athena.mit.edu/user/j/g/jgross/web_scripts/alphabets/results/unreviewed/m4270596287226275669/0/old_cyrillic_11_-4270596287226275669.png'
p1152
aS'/afs/athena.mit.edu/user/j/g/jgross/web_scripts/alphabets/results/unreviewed/m4270596287226275669/0/old_cyrillic_12_-4270596287226275669.png'
p1153
aS'/afs/athena.mit.edu/user/j/g/jgross/web_scripts/alphabets/results/unreviewed/m4270596287226275669/0/old_cyrillic_13_-4270596287226275669.png'
p1154
aS'/afs/athena.mit.edu/user/j/g/jgross/web_scripts/alphabets/results/unreviewed/m4270596287226275669/0/old_cyrillic_14_-4270596287226275669.png'
p1155
aS'/afs/athena.mit.edu/user/j/g/jgross/web_scripts/alphabets/results/unreviewed/m4270596287226275669/0/old_cyrillic_15_-4270596287226275669.png'
p1156
aS'/afs/athena.mit.edu/user/j/g/jgross/web_scripts/alphabets/results/unreviewed/m4270596287226275669/0/old_cyrillic_16_-4270596287226275669.png'
p1157
aS'/afs/athena.mit.edu/user/j/g/jgross/web_scripts/alphabets/results/unreviewed/m4270596287226275669/0/old_cyrillic_17_-4270596287226275669.png'
p1158
aS'/afs/athena.mit.edu/user/j/g/jgross/web_scripts/alphabets/results/unreviewed/m4270596287226275669/0/old_cyrillic_18_-4270596287226275669.png'
p1159
aS'/afs/athena.mit.edu/user/j/g/jgross/web_scripts/alphabets/results/unreviewed/m4270596287226275669/0/old_cyrillic_19_-4270596287226275669.png'
p1160
aS'/afs/athena.mit.edu/user/j/g/jgross/web_scripts/alphabets/results/unreviewed/m4270596287226275669/0/old_cyrillic_20_-4270596287226275669.png'
p1161
aS'/afs/athena.mit.edu/user/j/g/jgross/web_scripts/alphabets/results/unreviewed/m4270596287226275669/0/old_cyrillic_21_-4270596287226275669.png'
p1162
aS'/afs/athena.mit.edu/user/j/g/jgross/web_scripts/alphabets/results/unreviewed/m4270596287226275669/0/old_cyrillic_22_-4270596287226275669.png'
p1163
aS'/afs/athena.mit.edu/user/j/g/jgross/web_scripts/alphabets/results/unreviewed/m4270596287226275669/0/old_cyrillic_23_-4270596287226275669.png'
p1164
aS'/afs/athena.mit.edu/user/j/g/jgross/web_scripts/alphabets/results/unreviewed/m4270596287226275669/0/old_cyrillic_24_-4270596287226275669.png'
p1165
aS'/afs/athena.mit.edu/user/j/g/jgross/web_scripts/alphabets/results/unreviewed/m4270596287226275669/0/old_cyrillic_25_-4270596287226275669.png'
p1166
aS'/afs/athena.mit.edu/user/j/g/jgross/web_scripts/alphabets/results/unreviewed/m4270596287226275669/0/old_cyrillic_26_-4270596287226275669.png'
p1167
aS'/afs/athena.mit.edu/user/j/g/jgross/web_scripts/alphabets/results/unreviewed/m4270596287226275669/0/old_cyrillic_27_-4270596287226275669.png'
p1168
aS'/afs/athena.mit.edu/user/j/g/jgross/web_scripts/alphabets/results/unreviewed/m4270596287226275669/0/old_cyrillic_28_-4270596287226275669.png'
p1169
aS'/afs/athena.mit.edu/user/j/g/jgross/web_scripts/alphabets/results/unreviewed/m4270596287226275669/0/old_cyrillic_29_-4270596287226275669.png'
p1170
aS'/afs/athena.mit.edu/user/j/g/jgross/web_scripts/alphabets/results/unreviewed/m4270596287226275669/0/old_cyrillic_30_-4270596287226275669.png'
p1171
aS'/afs/athena.mit.edu/user/j/g/jgross/web_scripts/alphabets/results/unreviewed/m4270596287226275669/0/old_cyrillic_31_-4270596287226275669.png'
p1172
aS'/afs/athena.mit.edu/user/j/g/jgross/web_scripts/alphabets/results/unreviewed/m4270596287226275669/0/old_cyrillic_32_-4270596287226275669.png'
p1173
aS'/afs/athena.mit.edu/user/j/g/jgross/web_scripts/alphabets/results/unreviewed/m4270596287226275669/0/old_cyrillic_33_-4270596287226275669.png'
p1174
aS'/afs/athena.mit.edu/user/j/g/jgross/web_scripts/alphabets/results/unreviewed/m4270596287226275669/0/old_cyrillic_34_-4270596287226275669.png'
p1175
aS'/afs/athena.mit.edu/user/j/g/jgross/web_scripts/alphabets/results/unreviewed/m4270596287226275669/0/old_cyrillic_35_-4270596287226275669.png'
p1176
aS'/afs/athena.mit.edu/user/j/g/jgross/web_scripts/alphabets/results/unreviewed/m4270596287226275669/0/old_cyrillic_36_-4270596287226275669.png'
p1177
aS'/afs/athena.mit.edu/user/j/g/jgross/web_scripts/alphabets/results/unreviewed/m4270596287226275669/0/old_cyrillic_37_-4270596287226275669.png'
p1178
aS'/afs/athena.mit.edu/user/j/g/jgross/web_scripts/alphabets/results/unreviewed/m4270596287226275669/0/old_cyrillic_38_-4270596287226275669.png'
p1179
aS'/afs/athena.mit.edu/user/j/g/jgross/web_scripts/alphabets/results/unreviewed/m4270596287226275669/0/old_cyrillic_39_-4270596287226275669.png'
p1180
aS'/afs/athena.mit.edu/user/j/g/jgross/web_scripts/alphabets/results/unreviewed/m4270596287226275669/0/old_cyrillic_40_-4270596287226275669.png'
p1181
aS'/afs/athena.mit.edu/user/j/g/jgross/web_scripts/alphabets/results/unreviewed/m4270596287226275669/0/old_cyrillic_41_-4270596287226275669.png'
p1182
aS'/afs/athena.mit.edu/user/j/g/jgross/web_scripts/alphabets/results/unreviewed/m4270596287226275669/0/old_cyrillic_42_-4270596287226275669.png'
p1183
aS'/afs/athena.mit.edu/user/j/g/jgross/web_scripts/alphabets/results/unreviewed/m4270596287226275669/0/old_cyrillic_43_-4270596287226275669.png'
p1184
aS'/afs/athena.mit.edu/user/j/g/jgross/web_scripts/alphabets/results/unreviewed/m4270596287226275669/0/old_cyrillic_44_-4270596287226275669.png'
p1185
aS'/afs/athena.mit.edu/user/j/g/jgross/web_scripts/alphabets/results/unreviewed/m4270596287226275669/0/old_cyrillic_45_-4270596287226275669.png'
p1186
asS'-1068123825937844454'
p1187
(lp1188
S'/afs/athena.mit.edu/user/j/g/jgross/web_scripts/alphabets/results/unreviewed/m1068123825937844454/1/old_cyrillic_01_-1068123825937844454.png'
p1189
aS'/afs/athena.mit.edu/user/j/g/jgross/web_scripts/alphabets/results/unreviewed/m1068123825937844454/1/old_cyrillic_02_-1068123825937844454.png'
p1190
aS'/afs/athena.mit.edu/user/j/g/jgross/web_scripts/alphabets/results/unreviewed/m1068123825937844454/1/old_cyrillic_03_-1068123825937844454.png'
p1191
aS'/afs/athena.mit.edu/user/j/g/jgross/web_scripts/alphabets/results/unreviewed/m1068123825937844454/1/old_cyrillic_04_-1068123825937844454.png'
p1192
aS'/afs/athena.mit.edu/user/j/g/jgross/web_scripts/alphabets/results/unreviewed/m1068123825937844454/1/old_cyrillic_05_-1068123825937844454.png'
p1193
aS'/afs/athena.mit.edu/user/j/g/jgross/web_scripts/alphabets/results/unreviewed/m1068123825937844454/1/old_cyrillic_06_-1068123825937844454.png'
p1194
aS'/afs/athena.mit.edu/user/j/g/jgross/web_scripts/alphabets/results/unreviewed/m1068123825937844454/1/old_cyrillic_07_-1068123825937844454.png'
p1195
aS'/afs/athena.mit.edu/user/j/g/jgross/web_scripts/alphabets/results/unreviewed/m1068123825937844454/1/old_cyrillic_08_-1068123825937844454.png'
p1196
aS'/afs/athena.mit.edu/user/j/g/jgross/web_scripts/alphabets/results/unreviewed/m1068123825937844454/1/old_cyrillic_09_-1068123825937844454.png'
p1197
aS'/afs/athena.mit.edu/user/j/g/jgross/web_scripts/alphabets/results/unreviewed/m1068123825937844454/1/old_cyrillic_10_-1068123825937844454.png'
p1198
aS'/afs/athena.mit.edu/user/j/g/jgross/web_scripts/alphabets/results/unreviewed/m1068123825937844454/1/old_cyrillic_11_-1068123825937844454.png'
p1199
aS'/afs/athena.mit.edu/user/j/g/jgross/web_scripts/alphabets/results/unreviewed/m1068123825937844454/1/old_cyrillic_12_-1068123825937844454.png'
p1200
aS'/afs/athena.mit.edu/user/j/g/jgross/web_scripts/alphabets/results/unreviewed/m1068123825937844454/1/old_cyrillic_13_-1068123825937844454.png'
p1201
aS'/afs/athena.mit.edu/user/j/g/jgross/web_scripts/alphabets/results/unreviewed/m1068123825937844454/1/old_cyrillic_14_-1068123825937844454.png'
p1202
aS'/afs/athena.mit.edu/user/j/g/jgross/web_scripts/alphabets/results/unreviewed/m1068123825937844454/1/old_cyrillic_15_-1068123825937844454.png'
p1203
aS'/afs/athena.mit.edu/user/j/g/jgross/web_scripts/alphabets/results/unreviewed/m1068123825937844454/1/old_cyrillic_16_-1068123825937844454.png'
p1204
aS'/afs/athena.mit.edu/user/j/g/jgross/web_scripts/alphabets/results/unreviewed/m1068123825937844454/1/old_cyrillic_17_-1068123825937844454.png'
p1205
aS'/afs/athena.mit.edu/user/j/g/jgross/web_scripts/alphabets/results/unreviewed/m1068123825937844454/1/old_cyrillic_18_-1068123825937844454.png'
p1206
aS'/afs/athena.mit.edu/user/j/g/jgross/web_scripts/alphabets/results/unreviewed/m1068123825937844454/1/old_cyrillic_19_-1068123825937844454.png'
p1207
aS'/afs/athena.mit.edu/user/j/g/jgross/web_scripts/alphabets/results/unreviewed/m1068123825937844454/1/old_cyrillic_20_-1068123825937844454.png'
p1208
aS'/afs/athena.mit.edu/user/j/g/jgross/web_scripts/alphabets/results/unreviewed/m1068123825937844454/1/old_cyrillic_21_-1068123825937844454.png'
p1209
aS'/afs/athena.mit.edu/user/j/g/jgross/web_scripts/alphabets/results/unreviewed/m1068123825937844454/1/old_cyrillic_22_-1068123825937844454.png'
p1210
aS'/afs/athena.mit.edu/user/j/g/jgross/web_scripts/alphabets/results/unreviewed/m1068123825937844454/1/old_cyrillic_23_-1068123825937844454.png'
p1211
aS'/afs/athena.mit.edu/user/j/g/jgross/web_scripts/alphabets/results/unreviewed/m1068123825937844454/1/old_cyrillic_24_-1068123825937844454.png'
p1212
aS'/afs/athena.mit.edu/user/j/g/jgross/web_scripts/alphabets/results/unreviewed/m1068123825937844454/1/old_cyrillic_25_-1068123825937844454.png'
p1213
aS'/afs/athena.mit.edu/user/j/g/jgross/web_scripts/alphabets/results/unreviewed/m1068123825937844454/1/old_cyrillic_26_-1068123825937844454.png'
p1214
aS'/afs/athena.mit.edu/user/j/g/jgross/web_scripts/alphabets/results/unreviewed/m1068123825937844454/1/old_cyrillic_27_-1068123825937844454.png'
p1215
aS'/afs/athena.mit.edu/user/j/g/jgross/web_scripts/alphabets/results/unreviewed/m1068123825937844454/1/old_cyrillic_28_-1068123825937844454.png'
p1216
aS'/afs/athena.mit.edu/user/j/g/jgross/web_scripts/alphabets/results/unreviewed/m1068123825937844454/1/old_cyrillic_29_-1068123825937844454.png'
p1217
aS'/afs/athena.mit.edu/user/j/g/jgross/web_scripts/alphabets/results/unreviewed/m1068123825937844454/1/old_cyrillic_30_-1068123825937844454.png'
p1218
aS'/afs/athena.mit.edu/user/j/g/jgross/web_scripts/alphabets/results/unreviewed/m1068123825937844454/1/old_cyrillic_31_-1068123825937844454.png'
p1219
aS'/afs/athena.mit.edu/user/j/g/jgross/web_scripts/alphabets/results/unreviewed/m1068123825937844454/1/old_cyrillic_32_-1068123825937844454.png'
p1220
aS'/afs/athena.mit.edu/user/j/g/jgross/web_scripts/alphabets/results/unreviewed/m1068123825937844454/1/old_cyrillic_33_-1068123825937844454.png'
p1221
aS'/afs/athena.mit.edu/user/j/g/jgross/web_scripts/alphabets/results/unreviewed/m1068123825937844454/1/old_cyrillic_34_-1068123825937844454.png'
p1222
aS'/afs/athena.mit.edu/user/j/g/jgross/web_scripts/alphabets/results/unreviewed/m1068123825937844454/1/old_cyrillic_35_-1068123825937844454.png'
p1223
aS'/afs/athena.mit.edu/user/j/g/jgross/web_scripts/alphabets/results/unreviewed/m1068123825937844454/1/old_cyrillic_36_-1068123825937844454.png'
p1224
aS'/afs/athena.mit.edu/user/j/g/jgross/web_scripts/alphabets/results/unreviewed/m1068123825937844454/1/old_cyrillic_37_-1068123825937844454.png'
p1225
aS'/afs/athena.mit.edu/user/j/g/jgross/web_scripts/alphabets/results/unreviewed/m1068123825937844454/1/old_cyrillic_38_-1068123825937844454.png'
p1226
aS'/afs/athena.mit.edu/user/j/g/jgross/web_scripts/alphabets/results/unreviewed/m1068123825937844454/1/old_cyrillic_39_-1068123825937844454.png'
p1227
aS'/afs/athena.mit.edu/user/j/g/jgross/web_scripts/alphabets/results/unreviewed/m1068123825937844454/1/old_cyrillic_40_-1068123825937844454.png'
p1228
aS'/afs/athena.mit.edu/user/j/g/jgross/web_scripts/alphabets/results/unreviewed/m1068123825937844454/1/old_cyrillic_41_-1068123825937844454.png'
p1229
aS'/afs/athena.mit.edu/user/j/g/jgross/web_scripts/alphabets/results/unreviewed/m1068123825937844454/1/old_cyrillic_42_-1068123825937844454.png'
p1230
aS'/afs/athena.mit.edu/user/j/g/jgross/web_scripts/alphabets/results/unreviewed/m1068123825937844454/1/old_cyrillic_43_-1068123825937844454.png'
p1231
aS'/afs/athena.mit.edu/user/j/g/jgross/web_scripts/alphabets/results/unreviewed/m1068123825937844454/1/old_cyrillic_44_-1068123825937844454.png'
p1232
aS'/afs/athena.mit.edu/user/j/g/jgross/web_scripts/alphabets/results/unreviewed/m1068123825937844454/1/old_cyrillic_45_-1068123825937844454.png'
p1233
asS'-4691905783817960121'
p1234
(lp1235
S'/afs/athena.mit.edu/user/j/g/jgross/web_scripts/alphabets/results/unreviewed/m4691905783817960121/0/old_cyrillic_01_-4691905783817960121.png'
p1236
aS'/afs/athena.mit.edu/user/j/g/jgross/web_scripts/alphabets/results/unreviewed/m4691905783817960121/0/old_cyrillic_02_-4691905783817960121.png'
p1237
aS'/afs/athena.mit.edu/user/j/g/jgross/web_scripts/alphabets/results/unreviewed/m4691905783817960121/0/old_cyrillic_03_-4691905783817960121.png'
p1238
aS'/afs/athena.mit.edu/user/j/g/jgross/web_scripts/alphabets/results/unreviewed/m4691905783817960121/0/old_cyrillic_04_-4691905783817960121.png'
p1239
aS'/afs/athena.mit.edu/user/j/g/jgross/web_scripts/alphabets/results/unreviewed/m4691905783817960121/0/old_cyrillic_05_-4691905783817960121.png'
p1240
aS'/afs/athena.mit.edu/user/j/g/jgross/web_scripts/alphabets/results/unreviewed/m4691905783817960121/0/old_cyrillic_06_-4691905783817960121.png'
p1241
aS'/afs/athena.mit.edu/user/j/g/jgross/web_scripts/alphabets/results/unreviewed/m4691905783817960121/0/old_cyrillic_07_-4691905783817960121.png'
p1242
aS'/afs/athena.mit.edu/user/j/g/jgross/web_scripts/alphabets/results/unreviewed/m4691905783817960121/0/old_cyrillic_08_-4691905783817960121.png'
p1243
aS'/afs/athena.mit.edu/user/j/g/jgross/web_scripts/alphabets/results/unreviewed/m4691905783817960121/0/old_cyrillic_09_-4691905783817960121.png'
p1244
aS'/afs/athena.mit.edu/user/j/g/jgross/web_scripts/alphabets/results/unreviewed/m4691905783817960121/0/old_cyrillic_10_-4691905783817960121.png'
p1245
aS'/afs/athena.mit.edu/user/j/g/jgross/web_scripts/alphabets/results/unreviewed/m4691905783817960121/0/old_cyrillic_11_-4691905783817960121.png'
p1246
aS'/afs/athena.mit.edu/user/j/g/jgross/web_scripts/alphabets/results/unreviewed/m4691905783817960121/0/old_cyrillic_12_-4691905783817960121.png'
p1247
aS'/afs/athena.mit.edu/user/j/g/jgross/web_scripts/alphabets/results/unreviewed/m4691905783817960121/0/old_cyrillic_13_-4691905783817960121.png'
p1248
aS'/afs/athena.mit.edu/user/j/g/jgross/web_scripts/alphabets/results/unreviewed/m4691905783817960121/0/old_cyrillic_14_-4691905783817960121.png'
p1249
aS'/afs/athena.mit.edu/user/j/g/jgross/web_scripts/alphabets/results/unreviewed/m4691905783817960121/0/old_cyrillic_15_-4691905783817960121.png'
p1250
aS'/afs/athena.mit.edu/user/j/g/jgross/web_scripts/alphabets/results/unreviewed/m4691905783817960121/0/old_cyrillic_16_-4691905783817960121.png'
p1251
aS'/afs/athena.mit.edu/user/j/g/jgross/web_scripts/alphabets/results/unreviewed/m4691905783817960121/0/old_cyrillic_17_-4691905783817960121.png'
p1252
aS'/afs/athena.mit.edu/user/j/g/jgross/web_scripts/alphabets/results/unreviewed/m4691905783817960121/0/old_cyrillic_18_-4691905783817960121.png'
p1253
aS'/afs/athena.mit.edu/user/j/g/jgross/web_scripts/alphabets/results/unreviewed/m4691905783817960121/0/old_cyrillic_19_-4691905783817960121.png'
p1254
aS'/afs/athena.mit.edu/user/j/g/jgross/web_scripts/alphabets/results/unreviewed/m4691905783817960121/0/old_cyrillic_20_-4691905783817960121.png'
p1255
aS'/afs/athena.mit.edu/user/j/g/jgross/web_scripts/alphabets/results/unreviewed/m4691905783817960121/0/old_cyrillic_21_-4691905783817960121.png'
p1256
aS'/afs/athena.mit.edu/user/j/g/jgross/web_scripts/alphabets/results/unreviewed/m4691905783817960121/0/old_cyrillic_22_-4691905783817960121.png'
p1257
aS'/afs/athena.mit.edu/user/j/g/jgross/web_scripts/alphabets/results/unreviewed/m4691905783817960121/0/old_cyrillic_23_-4691905783817960121.png'
p1258
aS'/afs/athena.mit.edu/user/j/g/jgross/web_scripts/alphabets/results/unreviewed/m4691905783817960121/0/old_cyrillic_24_-4691905783817960121.png'
p1259
aS'/afs/athena.mit.edu/user/j/g/jgross/web_scripts/alphabets/results/unreviewed/m4691905783817960121/0/old_cyrillic_25_-4691905783817960121.png'
p1260
aS'/afs/athena.mit.edu/user/j/g/jgross/web_scripts/alphabets/results/unreviewed/m4691905783817960121/0/old_cyrillic_26_-4691905783817960121.png'
p1261
aS'/afs/athena.mit.edu/user/j/g/jgross/web_scripts/alphabets/results/unreviewed/m4691905783817960121/0/old_cyrillic_27_-4691905783817960121.png'
p1262
aS'/afs/athena.mit.edu/user/j/g/jgross/web_scripts/alphabets/results/unreviewed/m4691905783817960121/0/old_cyrillic_28_-4691905783817960121.png'
p1263
aS'/afs/athena.mit.edu/user/j/g/jgross/web_scripts/alphabets/results/unreviewed/m4691905783817960121/0/old_cyrillic_29_-4691905783817960121.png'
p1264
aS'/afs/athena.mit.edu/user/j/g/jgross/web_scripts/alphabets/results/unreviewed/m4691905783817960121/0/old_cyrillic_30_-4691905783817960121.png'
p1265
aS'/afs/athena.mit.edu/user/j/g/jgross/web_scripts/alphabets/results/unreviewed/m4691905783817960121/0/old_cyrillic_31_-4691905783817960121.png'
p1266
aS'/afs/athena.mit.edu/user/j/g/jgross/web_scripts/alphabets/results/unreviewed/m4691905783817960121/0/old_cyrillic_32_-4691905783817960121.png'
p1267
aS'/afs/athena.mit.edu/user/j/g/jgross/web_scripts/alphabets/results/unreviewed/m4691905783817960121/0/old_cyrillic_33_-4691905783817960121.png'
p1268
aS'/afs/athena.mit.edu/user/j/g/jgross/web_scripts/alphabets/results/unreviewed/m4691905783817960121/0/old_cyrillic_34_-4691905783817960121.png'
p1269
aS'/afs/athena.mit.edu/user/j/g/jgross/web_scripts/alphabets/results/unreviewed/m4691905783817960121/0/old_cyrillic_35_-4691905783817960121.png'
p1270
aS'/afs/athena.mit.edu/user/j/g/jgross/web_scripts/alphabets/results/unreviewed/m4691905783817960121/0/old_cyrillic_36_-4691905783817960121.png'
p1271
aS'/afs/athena.mit.edu/user/j/g/jgross/web_scripts/alphabets/results/unreviewed/m4691905783817960121/0/old_cyrillic_37_-4691905783817960121.png'
p1272
aS'/afs/athena.mit.edu/user/j/g/jgross/web_scripts/alphabets/results/unreviewed/m4691905783817960121/0/old_cyrillic_38_-4691905783817960121.png'
p1273
aS'/afs/athena.mit.edu/user/j/g/jgross/web_scripts/alphabets/results/unreviewed/m4691905783817960121/0/old_cyrillic_39_-4691905783817960121.png'
p1274
aS'/afs/athena.mit.edu/user/j/g/jgross/web_scripts/alphabets/results/unreviewed/m4691905783817960121/0/old_cyrillic_40_-4691905783817960121.png'
p1275
aS'/afs/athena.mit.edu/user/j/g/jgross/web_scripts/alphabets/results/unreviewed/m4691905783817960121/0/old_cyrillic_41_-4691905783817960121.png'
p1276
aS'/afs/athena.mit.edu/user/j/g/jgross/web_scripts/alphabets/results/unreviewed/m4691905783817960121/0/old_cyrillic_42_-4691905783817960121.png'
p1277
aS'/afs/athena.mit.edu/user/j/g/jgross/web_scripts/alphabets/results/unreviewed/m4691905783817960121/0/old_cyrillic_43_-4691905783817960121.png'
p1278
aS'/afs/athena.mit.edu/user/j/g/jgross/web_scripts/alphabets/results/unreviewed/m4691905783817960121/0/old_cyrillic_44_-4691905783817960121.png'
p1279
aS'/afs/athena.mit.edu/user/j/g/jgross/web_scripts/alphabets/results/unreviewed/m4691905783817960121/0/old_cyrillic_45_-4691905783817960121.png'
p1280
assS'futhorc'
p1281
(dp1282
S'-5208217318094312047'
p1283
(lp1284
S'/afs/athena.mit.edu/user/j/g/jgross/web_scripts/alphabets/results/unreviewed/m5208217318094312047/0/futhorc_01_-5208217318094312047.png'
p1285
aS'/afs/athena.mit.edu/user/j/g/jgross/web_scripts/alphabets/results/unreviewed/m5208217318094312047/0/futhorc_02_-5208217318094312047.png'
p1286
aS'/afs/athena.mit.edu/user/j/g/jgross/web_scripts/alphabets/results/unreviewed/m5208217318094312047/0/futhorc_03_-5208217318094312047.png'
p1287
aS'/afs/athena.mit.edu/user/j/g/jgross/web_scripts/alphabets/results/unreviewed/m5208217318094312047/0/futhorc_04_-5208217318094312047.png'
p1288
aS'/afs/athena.mit.edu/user/j/g/jgross/web_scripts/alphabets/results/unreviewed/m5208217318094312047/0/futhorc_05_-5208217318094312047.png'
p1289
aS'/afs/athena.mit.edu/user/j/g/jgross/web_scripts/alphabets/results/unreviewed/m5208217318094312047/0/futhorc_06_-5208217318094312047.png'
p1290
aS'/afs/athena.mit.edu/user/j/g/jgross/web_scripts/alphabets/results/unreviewed/m5208217318094312047/0/futhorc_07_-5208217318094312047.png'
p1291
aS'/afs/athena.mit.edu/user/j/g/jgross/web_scripts/alphabets/results/unreviewed/m5208217318094312047/0/futhorc_08_-5208217318094312047.png'
p1292
aS'/afs/athena.mit.edu/user/j/g/jgross/web_scripts/alphabets/results/unreviewed/m5208217318094312047/0/futhorc_09_-5208217318094312047.png'
p1293
aS'/afs/athena.mit.edu/user/j/g/jgross/web_scripts/alphabets/results/unreviewed/m5208217318094312047/0/futhorc_10_-5208217318094312047.png'
p1294
aS'/afs/athena.mit.edu/user/j/g/jgross/web_scripts/alphabets/results/unreviewed/m5208217318094312047/0/futhorc_11_-5208217318094312047.png'
p1295
aS'/afs/athena.mit.edu/user/j/g/jgross/web_scripts/alphabets/results/unreviewed/m5208217318094312047/0/futhorc_12_-5208217318094312047.png'
p1296
aS'/afs/athena.mit.edu/user/j/g/jgross/web_scripts/alphabets/results/unreviewed/m5208217318094312047/0/futhorc_13_-5208217318094312047.png'
p1297
aS'/afs/athena.mit.edu/user/j/g/jgross/web_scripts/alphabets/results/unreviewed/m5208217318094312047/0/futhorc_14_-5208217318094312047.png'
p1298
aS'/afs/athena.mit.edu/user/j/g/jgross/web_scripts/alphabets/results/unreviewed/m5208217318094312047/0/futhorc_15_-5208217318094312047.png'
p1299
aS'/afs/athena.mit.edu/user/j/g/jgross/web_scripts/alphabets/results/unreviewed/m5208217318094312047/0/futhorc_16_-5208217318094312047.png'
p1300
aS'/afs/athena.mit.edu/user/j/g/jgross/web_scripts/alphabets/results/unreviewed/m5208217318094312047/0/futhorc_17_-5208217318094312047.png'
p1301
aS'/afs/athena.mit.edu/user/j/g/jgross/web_scripts/alphabets/results/unreviewed/m5208217318094312047/0/futhorc_18_-5208217318094312047.png'
p1302
aS'/afs/athena.mit.edu/user/j/g/jgross/web_scripts/alphabets/results/unreviewed/m5208217318094312047/0/futhorc_19_-5208217318094312047.png'
p1303
aS'/afs/athena.mit.edu/user/j/g/jgross/web_scripts/alphabets/results/unreviewed/m5208217318094312047/0/futhorc_20_-5208217318094312047.png'
p1304
aS'/afs/athena.mit.edu/user/j/g/jgross/web_scripts/alphabets/results/unreviewed/m5208217318094312047/0/futhorc_21_-5208217318094312047.png'
p1305
aS'/afs/athena.mit.edu/user/j/g/jgross/web_scripts/alphabets/results/unreviewed/m5208217318094312047/0/futhorc_22_-5208217318094312047.png'
p1306
aS'/afs/athena.mit.edu/user/j/g/jgross/web_scripts/alphabets/results/unreviewed/m5208217318094312047/0/futhorc_23_-5208217318094312047.png'
p1307
aS'/afs/athena.mit.edu/user/j/g/jgross/web_scripts/alphabets/results/unreviewed/m5208217318094312047/0/futhorc_24_-5208217318094312047.png'
p1308
aS'/afs/athena.mit.edu/user/j/g/jgross/web_scripts/alphabets/results/unreviewed/m5208217318094312047/0/futhorc_25_-5208217318094312047.png'
p1309
aS'/afs/athena.mit.edu/user/j/g/jgross/web_scripts/alphabets/results/unreviewed/m5208217318094312047/0/futhorc_26_-5208217318094312047.png'
p1310
aS'/afs/athena.mit.edu/user/j/g/jgross/web_scripts/alphabets/results/unreviewed/m5208217318094312047/0/futhorc_27_-5208217318094312047.png'
p1311
aS'/afs/athena.mit.edu/user/j/g/jgross/web_scripts/alphabets/results/unreviewed/m5208217318094312047/0/futhorc_28_-5208217318094312047.png'
p1312
aS'/afs/athena.mit.edu/user/j/g/jgross/web_scripts/alphabets/results/unreviewed/m5208217318094312047/0/futhorc_29_-5208217318094312047.png'
p1313
assS'lao'
p1314
(dp1315
S'-728848187354715598'
p1316
(lp1317
S'/afs/athena.mit.edu/user/j/g/jgross/web_scripts/alphabets/results/unreviewed/m728848187354715598/0/lao_01_-728848187354715598.png'
p1318
aS'/afs/athena.mit.edu/user/j/g/jgross/web_scripts/alphabets/results/unreviewed/m728848187354715598/0/lao_02_-728848187354715598.png'
p1319
aS'/afs/athena.mit.edu/user/j/g/jgross/web_scripts/alphabets/results/unreviewed/m728848187354715598/0/lao_03_-728848187354715598.png'
p1320
aS'/afs/athena.mit.edu/user/j/g/jgross/web_scripts/alphabets/results/unreviewed/m728848187354715598/0/lao_04_-728848187354715598.png'
p1321
aS'/afs/athena.mit.edu/user/j/g/jgross/web_scripts/alphabets/results/unreviewed/m728848187354715598/0/lao_05_-728848187354715598.png'
p1322
aS'/afs/athena.mit.edu/user/j/g/jgross/web_scripts/alphabets/results/unreviewed/m728848187354715598/0/lao_06_-728848187354715598.png'
p1323
aS'/afs/athena.mit.edu/user/j/g/jgross/web_scripts/alphabets/results/unreviewed/m728848187354715598/0/lao_07_-728848187354715598.png'
p1324
aS'/afs/athena.mit.edu/user/j/g/jgross/web_scripts/alphabets/results/unreviewed/m728848187354715598/0/lao_08_-728848187354715598.png'
p1325
aS'/afs/athena.mit.edu/user/j/g/jgross/web_scripts/alphabets/results/unreviewed/m728848187354715598/0/lao_09_-728848187354715598.png'
p1326
aS'/afs/athena.mit.edu/user/j/g/jgross/web_scripts/alphabets/results/unreviewed/m728848187354715598/0/lao_10_-728848187354715598.png'
p1327
aS'/afs/athena.mit.edu/user/j/g/jgross/web_scripts/alphabets/results/unreviewed/m728848187354715598/0/lao_11_-728848187354715598.png'
p1328
aS'/afs/athena.mit.edu/user/j/g/jgross/web_scripts/alphabets/results/unreviewed/m728848187354715598/0/lao_12_-728848187354715598.png'
p1329
aS'/afs/athena.mit.edu/user/j/g/jgross/web_scripts/alphabets/results/unreviewed/m728848187354715598/0/lao_13_-728848187354715598.png'
p1330
aS'/afs/athena.mit.edu/user/j/g/jgross/web_scripts/alphabets/results/unreviewed/m728848187354715598/0/lao_14_-728848187354715598.png'
p1331
aS'/afs/athena.mit.edu/user/j/g/jgross/web_scripts/alphabets/results/unreviewed/m728848187354715598/0/lao_15_-728848187354715598.png'
p1332
aS'/afs/athena.mit.edu/user/j/g/jgross/web_scripts/alphabets/results/unreviewed/m728848187354715598/0/lao_16_-728848187354715598.png'
p1333
aS'/afs/athena.mit.edu/user/j/g/jgross/web_scripts/alphabets/results/unreviewed/m728848187354715598/0/lao_17_-728848187354715598.png'
p1334
aS'/afs/athena.mit.edu/user/j/g/jgross/web_scripts/alphabets/results/unreviewed/m728848187354715598/0/lao_18_-728848187354715598.png'
p1335
aS'/afs/athena.mit.edu/user/j/g/jgross/web_scripts/alphabets/results/unreviewed/m728848187354715598/0/lao_19_-728848187354715598.png'
p1336
aS'/afs/athena.mit.edu/user/j/g/jgross/web_scripts/alphabets/results/unreviewed/m728848187354715598/0/lao_20_-728848187354715598.png'
p1337
aS'/afs/athena.mit.edu/user/j/g/jgross/web_scripts/alphabets/results/unreviewed/m728848187354715598/0/lao_21_-728848187354715598.png'
p1338
aS'/afs/athena.mit.edu/user/j/g/jgross/web_scripts/alphabets/results/unreviewed/m728848187354715598/0/lao_22_-728848187354715598.png'
p1339
aS'/afs/athena.mit.edu/user/j/g/jgross/web_scripts/alphabets/results/unreviewed/m728848187354715598/0/lao_23_-728848187354715598.png'
p1340
aS'/afs/athena.mit.edu/user/j/g/jgross/web_scripts/alphabets/results/unreviewed/m728848187354715598/0/lao_24_-728848187354715598.png'
p1341
aS'/afs/athena.mit.edu/user/j/g/jgross/web_scripts/alphabets/results/unreviewed/m728848187354715598/0/lao_25_-728848187354715598.png'
p1342
aS'/afs/athena.mit.edu/user/j/g/jgross/web_scripts/alphabets/results/unreviewed/m728848187354715598/0/lao_26_-728848187354715598.png'
p1343
aS'/afs/athena.mit.edu/user/j/g/jgross/web_scripts/alphabets/results/unreviewed/m728848187354715598/0/lao_27_-728848187354715598.png'
p1344
assS'aurek_besh'
p1345
(dp1346
S'-5998759788251326801'
p1347
(lp1348
S'/afs/athena.mit.edu/user/j/g/jgross/web_scripts/alphabets/results/unreviewed/m5998759788251326801/0/aurek_besh_01_-5998759788251326801.png'
p1349
aS'/afs/athena.mit.edu/user/j/g/jgross/web_scripts/alphabets/results/unreviewed/m5998759788251326801/0/aurek_besh_02_-5998759788251326801.png'
p1350
aS'/afs/athena.mit.edu/user/j/g/jgross/web_scripts/alphabets/results/unreviewed/m5998759788251326801/0/aurek_besh_03_-5998759788251326801.png'
p1351
aS'/afs/athena.mit.edu/user/j/g/jgross/web_scripts/alphabets/results/unreviewed/m5998759788251326801/0/aurek_besh_04_-5998759788251326801.png'
p1352
aS'/afs/athena.mit.edu/user/j/g/jgross/web_scripts/alphabets/results/unreviewed/m5998759788251326801/0/aurek_besh_05_-5998759788251326801.png'
p1353
aS'/afs/athena.mit.edu/user/j/g/jgross/web_scripts/alphabets/results/unreviewed/m5998759788251326801/0/aurek_besh_06_-5998759788251326801.png'
p1354
aS'/afs/athena.mit.edu/user/j/g/jgross/web_scripts/alphabets/results/unreviewed/m5998759788251326801/0/aurek_besh_07_-5998759788251326801.png'
p1355
aS'/afs/athena.mit.edu/user/j/g/jgross/web_scripts/alphabets/results/unreviewed/m5998759788251326801/0/aurek_besh_08_-5998759788251326801.png'
p1356
aS'/afs/athena.mit.edu/user/j/g/jgross/web_scripts/alphabets/results/unreviewed/m5998759788251326801/0/aurek_besh_09_-5998759788251326801.png'
p1357
aS'/afs/athena.mit.edu/user/j/g/jgross/web_scripts/alphabets/results/unreviewed/m5998759788251326801/0/aurek_besh_10_-5998759788251326801.png'
p1358
aS'/afs/athena.mit.edu/user/j/g/jgross/web_scripts/alphabets/results/unreviewed/m5998759788251326801/0/aurek_besh_11_-5998759788251326801.png'
p1359
aS'/afs/athena.mit.edu/user/j/g/jgross/web_scripts/alphabets/results/unreviewed/m5998759788251326801/0/aurek_besh_12_-5998759788251326801.png'
p1360
aS'/afs/athena.mit.edu/user/j/g/jgross/web_scripts/alphabets/results/unreviewed/m5998759788251326801/0/aurek_besh_13_-5998759788251326801.png'
p1361
aS'/afs/athena.mit.edu/user/j/g/jgross/web_scripts/alphabets/results/unreviewed/m5998759788251326801/0/aurek_besh_14_-5998759788251326801.png'
p1362
aS'/afs/athena.mit.edu/user/j/g/jgross/web_scripts/alphabets/results/unreviewed/m5998759788251326801/0/aurek_besh_15_-5998759788251326801.png'
p1363
aS'/afs/athena.mit.edu/user/j/g/jgross/web_scripts/alphabets/results/unreviewed/m5998759788251326801/0/aurek_besh_16_-5998759788251326801.png'
p1364
aS'/afs/athena.mit.edu/user/j/g/jgross/web_scripts/alphabets/results/unreviewed/m5998759788251326801/0/aurek_besh_17_-5998759788251326801.png'
p1365
aS'/afs/athena.mit.edu/user/j/g/jgross/web_scripts/alphabets/results/unreviewed/m5998759788251326801/0/aurek_besh_18_-5998759788251326801.png'
p1366
aS'/afs/athena.mit.edu/user/j/g/jgross/web_scripts/alphabets/results/unreviewed/m5998759788251326801/0/aurek_besh_19_-5998759788251326801.png'
p1367
aS'/afs/athena.mit.edu/user/j/g/jgross/web_scripts/alphabets/results/unreviewed/m5998759788251326801/0/aurek_besh_20_-5998759788251326801.png'
p1368
aS'/afs/athena.mit.edu/user/j/g/jgross/web_scripts/alphabets/results/unreviewed/m5998759788251326801/0/aurek_besh_21_-5998759788251326801.png'
p1369
aS'/afs/athena.mit.edu/user/j/g/jgross/web_scripts/alphabets/results/unreviewed/m5998759788251326801/0/aurek_besh_22_-5998759788251326801.png'
p1370
aS'/afs/athena.mit.edu/user/j/g/jgross/web_scripts/alphabets/results/unreviewed/m5998759788251326801/0/aurek_besh_23_-5998759788251326801.png'
p1371
aS'/afs/athena.mit.edu/user/j/g/jgross/web_scripts/alphabets/results/unreviewed/m5998759788251326801/0/aurek_besh_24_-5998759788251326801.png'
p1372
aS'/afs/athena.mit.edu/user/j/g/jgross/web_scripts/alphabets/results/unreviewed/m5998759788251326801/0/aurek_besh_25_-5998759788251326801.png'
p1373
aS'/afs/athena.mit.edu/user/j/g/jgross/web_scripts/alphabets/results/unreviewed/m5998759788251326801/0/aurek_besh_26_-5998759788251326801.png'
p1374
asS'-8311401791455936289'
p1375
(lp1376
S'/afs/athena.mit.edu/user/j/g/jgross/web_scripts/alphabets/results/unreviewed/m8311401791455936289/0/aurek_besh_01_-8311401791455936289.png'
p1377
aS'/afs/athena.mit.edu/user/j/g/jgross/web_scripts/alphabets/results/unreviewed/m8311401791455936289/0/aurek_besh_02_-8311401791455936289.png'
p1378
aS'/afs/athena.mit.edu/user/j/g/jgross/web_scripts/alphabets/results/unreviewed/m8311401791455936289/0/aurek_besh_03_-8311401791455936289.png'
p1379
aS'/afs/athena.mit.edu/user/j/g/jgross/web_scripts/alphabets/results/unreviewed/m8311401791455936289/0/aurek_besh_04_-8311401791455936289.png'
p1380
aS'/afs/athena.mit.edu/user/j/g/jgross/web_scripts/alphabets/results/unreviewed/m8311401791455936289/0/aurek_besh_05_-8311401791455936289.png'
p1381
aS'/afs/athena.mit.edu/user/j/g/jgross/web_scripts/alphabets/results/unreviewed/m8311401791455936289/0/aurek_besh_06_-8311401791455936289.png'
p1382
aS'/afs/athena.mit.edu/user/j/g/jgross/web_scripts/alphabets/results/unreviewed/m8311401791455936289/0/aurek_besh_07_-8311401791455936289.png'
p1383
aS'/afs/athena.mit.edu/user/j/g/jgross/web_scripts/alphabets/results/unreviewed/m8311401791455936289/0/aurek_besh_08_-8311401791455936289.png'
p1384
aS'/afs/athena.mit.edu/user/j/g/jgross/web_scripts/alphabets/results/unreviewed/m8311401791455936289/0/aurek_besh_09_-8311401791455936289.png'
p1385
aS'/afs/athena.mit.edu/user/j/g/jgross/web_scripts/alphabets/results/unreviewed/m8311401791455936289/0/aurek_besh_10_-8311401791455936289.png'
p1386
aS'/afs/athena.mit.edu/user/j/g/jgross/web_scripts/alphabets/results/unreviewed/m8311401791455936289/0/aurek_besh_11_-8311401791455936289.png'
p1387
aS'/afs/athena.mit.edu/user/j/g/jgross/web_scripts/alphabets/results/unreviewed/m8311401791455936289/0/aurek_besh_12_-8311401791455936289.png'
p1388
aS'/afs/athena.mit.edu/user/j/g/jgross/web_scripts/alphabets/results/unreviewed/m8311401791455936289/0/aurek_besh_13_-8311401791455936289.png'
p1389
aS'/afs/athena.mit.edu/user/j/g/jgross/web_scripts/alphabets/results/unreviewed/m8311401791455936289/0/aurek_besh_14_-8311401791455936289.png'
p1390
aS'/afs/athena.mit.edu/user/j/g/jgross/web_scripts/alphabets/results/unreviewed/m8311401791455936289/0/aurek_besh_15_-8311401791455936289.png'
p1391
aS'/afs/athena.mit.edu/user/j/g/jgross/web_scripts/alphabets/results/unreviewed/m8311401791455936289/0/aurek_besh_16_-8311401791455936289.png'
p1392
aS'/afs/athena.mit.edu/user/j/g/jgross/web_scripts/alphabets/results/unreviewed/m8311401791455936289/0/aurek_besh_17_-8311401791455936289.png'
p1393
aS'/afs/athena.mit.edu/user/j/g/jgross/web_scripts/alphabets/results/unreviewed/m8311401791455936289/0/aurek_besh_18_-8311401791455936289.png'
p1394
aS'/afs/athena.mit.edu/user/j/g/jgross/web_scripts/alphabets/results/unreviewed/m8311401791455936289/0/aurek_besh_19_-8311401791455936289.png'
p1395
aS'/afs/athena.mit.edu/user/j/g/jgross/web_scripts/alphabets/results/unreviewed/m8311401791455936289/0/aurek_besh_20_-8311401791455936289.png'
p1396
aS'/afs/athena.mit.edu/user/j/g/jgross/web_scripts/alphabets/results/unreviewed/m8311401791455936289/0/aurek_besh_21_-8311401791455936289.png'
p1397
aS'/afs/athena.mit.edu/user/j/g/jgross/web_scripts/alphabets/results/unreviewed/m8311401791455936289/0/aurek_besh_22_-8311401791455936289.png'
p1398
aS'/afs/athena.mit.edu/user/j/g/jgross/web_scripts/alphabets/results/unreviewed/m8311401791455936289/0/aurek_besh_23_-8311401791455936289.png'
p1399
aS'/afs/athena.mit.edu/user/j/g/jgross/web_scripts/alphabets/results/unreviewed/m8311401791455936289/0/aurek_besh_24_-8311401791455936289.png'
p1400
aS'/afs/athena.mit.edu/user/j/g/jgross/web_scripts/alphabets/results/unreviewed/m8311401791455936289/0/aurek_besh_25_-8311401791455936289.png'
p1401
aS'/afs/athena.mit.edu/user/j/g/jgross/web_scripts/alphabets/results/unreviewed/m8311401791455936289/0/aurek_besh_26_-8311401791455936289.png'
p1402
ass.