(dp1
S'Tagalog_Bikol_Mintz'
p2
(dp3
S'A31I2WO6BYCG9X'
p4
(lp5
S'/afs/athena.mit.edu/user/j/g/jgross/web_scripts/alphabets/results/turk-strokes/Tagalog/Tagalog_Bikol_Mintz_01_A31I2WO6BYCG9X.cstroke'
p6
aS'/afs/athena.mit.edu/user/j/g/jgross/web_scripts/alphabets/results/turk-strokes/Tagalog/Tagalog_Bikol_Mintz_02_A31I2WO6BYCG9X.cstroke'
p7
aS'/afs/athena.mit.edu/user/j/g/jgross/web_scripts/alphabets/results/turk-strokes/Tagalog/Tagalog_Bikol_Mintz_03_A31I2WO6BYCG9X.cstroke'
p8
aS'/afs/athena.mit.edu/user/j/g/jgross/web_scripts/alphabets/results/turk-strokes/Tagalog/Tagalog_Bikol_Mintz_04_A31I2WO6BYCG9X.cstroke'
p9
aS'/afs/athena.mit.edu/user/j/g/jgross/web_scripts/alphabets/results/turk-strokes/Tagalog/Tagalog_Bikol_Mintz_05_A31I2WO6BYCG9X.cstroke'
p10
aS'/afs/athena.mit.edu/user/j/g/jgross/web_scripts/alphabets/results/turk-strokes/Tagalog/Tagalog_Bikol_Mintz_06_A31I2WO6BYCG9X.cstroke'
p11
aS'/afs/athena.mit.edu/user/j/g/jgross/web_scripts/alphabets/results/turk-strokes/Tagalog/Tagalog_Bikol_Mintz_07_A31I2WO6BYCG9X.cstroke'
p12
aS'/afs/athena.mit.edu/user/j/g/jgross/web_scripts/alphabets/results/turk-strokes/Tagalog/Tagalog_Bikol_Mintz_08_A31I2WO6BYCG9X.cstroke'
p13
aS'/afs/athena.mit.edu/user/j/g/jgross/web_scripts/alphabets/results/turk-strokes/Tagalog/Tagalog_Bikol_Mintz_09_A31I2WO6BYCG9X.cstroke'
p14
aS'/afs/athena.mit.edu/user/j/g/jgross/web_scripts/alphabets/results/turk-strokes/Tagalog/Tagalog_Bikol_Mintz_10_A31I2WO6BYCG9X.cstroke'
p15
aS'/afs/athena.mit.edu/user/j/g/jgross/web_scripts/alphabets/results/turk-strokes/Tagalog/Tagalog_Bikol_Mintz_11_A31I2WO6BYCG9X.cstroke'
p16
aS'/afs/athena.mit.edu/user/j/g/jgross/web_scripts/alphabets/results/turk-strokes/Tagalog/Tagalog_Bikol_Mintz_12_A31I2WO6BYCG9X.cstroke'
p17
aS'/afs/athena.mit.edu/user/j/g/jgross/web_scripts/alphabets/results/turk-strokes/Tagalog/Tagalog_Bikol_Mintz_13_A31I2WO6BYCG9X.cstroke'
p18
aS'/afs/athena.mit.edu/user/j/g/jgross/web_scripts/alphabets/results/turk-strokes/Tagalog/Tagalog_Bikol_Mintz_14_A31I2WO6BYCG9X.cstroke'
p19
aS'/afs/athena.mit.edu/user/j/g/jgross/web_scripts/alphabets/results/turk-strokes/Tagalog/Tagalog_Bikol_Mintz_15_A31I2WO6BYCG9X.cstroke'
p20
aS'/afs/athena.mit.edu/user/j/g/jgross/web_scripts/alphabets/results/turk-strokes/Tagalog/Tagalog_Bikol_Mintz_16_A31I2WO6BYCG9X.cstroke'
p21
aS'/afs/athena.mit.edu/user/j/g/jgross/web_scripts/alphabets/results/turk-strokes/Tagalog/Tagalog_Bikol_Mintz_17_A31I2WO6BYCG9X.cstroke'
p22
asS'AK5SMQ4T7J68F'
p23
(lp24
S'/afs/athena.mit.edu/user/j/g/jgross/web_scripts/alphabets/results/turk-strokes/Tagalog/Tagalog_Bikol_Mintz_01_AK5SMQ4T7J68F.cstroke'
p25
aS'/afs/athena.mit.edu/user/j/g/jgross/web_scripts/alphabets/results/turk-strokes/Tagalog/Tagalog_Bikol_Mintz_02_AK5SMQ4T7J68F.cstroke'
p26
aS'/afs/athena.mit.edu/user/j/g/jgross/web_scripts/alphabets/results/turk-strokes/Tagalog/Tagalog_Bikol_Mintz_03_AK5SMQ4T7J68F.cstroke'
p27
aS'/afs/athena.mit.edu/user/j/g/jgross/web_scripts/alphabets/results/turk-strokes/Tagalog/Tagalog_Bikol_Mintz_04_AK5SMQ4T7J68F.cstroke'
p28
aS'/afs/athena.mit.edu/user/j/g/jgross/web_scripts/alphabets/results/turk-strokes/Tagalog/Tagalog_Bikol_Mintz_05_AK5SMQ4T7J68F.cstroke'
p29
aS'/afs/athena.mit.edu/user/j/g/jgross/web_scripts/alphabets/results/turk-strokes/Tagalog/Tagalog_Bikol_Mintz_06_AK5SMQ4T7J68F.cstroke'
p30
aS'/afs/athena.mit.edu/user/j/g/jgross/web_scripts/alphabets/results/turk-strokes/Tagalog/Tagalog_Bikol_Mintz_07_AK5SMQ4T7J68F.cstroke'
p31
aS'/afs/athena.mit.edu/user/j/g/jgross/web_scripts/alphabets/results/turk-strokes/Tagalog/Tagalog_Bikol_Mintz_08_AK5SMQ4T7J68F.cstroke'
p32
aS'/afs/athena.mit.edu/user/j/g/jgross/web_scripts/alphabets/results/turk-strokes/Tagalog/Tagalog_Bikol_Mintz_09_AK5SMQ4T7J68F.cstroke'
p33
aS'/afs/athena.mit.edu/user/j/g/jgross/web_scripts/alphabets/results/turk-strokes/Tagalog/Tagalog_Bikol_Mintz_10_AK5SMQ4T7J68F.cstroke'
p34
aS'/afs/athena.mit.edu/user/j/g/jgross/web_scripts/alphabets/results/turk-strokes/Tagalog/Tagalog_Bikol_Mintz_11_AK5SMQ4T7J68F.cstroke'
p35
aS'/afs/athena.mit.edu/user/j/g/jgross/web_scripts/alphabets/results/turk-strokes/Tagalog/Tagalog_Bikol_Mintz_12_AK5SMQ4T7J68F.cstroke'
p36
aS'/afs/athena.mit.edu/user/j/g/jgross/web_scripts/alphabets/results/turk-strokes/Tagalog/Tagalog_Bikol_Mintz_13_AK5SMQ4T7J68F.cstroke'
p37
aS'/afs/athena.mit.edu/user/j/g/jgross/web_scripts/alphabets/results/turk-strokes/Tagalog/Tagalog_Bikol_Mintz_14_AK5SMQ4T7J68F.cstroke'
p38
aS'/afs/athena.mit.edu/user/j/g/jgross/web_scripts/alphabets/results/turk-strokes/Tagalog/Tagalog_Bikol_Mintz_15_AK5SMQ4T7J68F.cstroke'
p39
aS'/afs/athena.mit.edu/user/j/g/jgross/web_scripts/alphabets/results/turk-strokes/Tagalog/Tagalog_Bikol_Mintz_16_AK5SMQ4T7J68F.cstroke'
p40
aS'/afs/athena.mit.edu/user/j/g/jgross/web_scripts/alphabets/results/turk-strokes/Tagalog/Tagalog_Bikol_Mintz_17_AK5SMQ4T7J68F.cstroke'
p41
asS'A2N57RT3GTCJHM'
p42
(lp43
S'/afs/athena.mit.edu/user/j/g/jgross/web_scripts/alphabets/results/turk-strokes/Tagalog/Tagalog_Bikol_Mintz_01_A2N57RT3GTCJHM.cstroke'
p44
aS'/afs/athena.mit.edu/user/j/g/jgross/web_scripts/alphabets/results/turk-strokes/Tagalog/Tagalog_Bikol_Mintz_02_A2N57RT3GTCJHM.cstroke'
p45
aS'/afs/athena.mit.edu/user/j/g/jgross/web_scripts/alphabets/results/turk-strokes/Tagalog/Tagalog_Bikol_Mintz_03_A2N57RT3GTCJHM.cstroke'
p46
aS'/afs/athena.mit.edu/user/j/g/jgross/web_scripts/alphabets/results/turk-strokes/Tagalog/Tagalog_Bikol_Mintz_04_A2N57RT3GTCJHM.cstroke'
p47
aS'/afs/athena.mit.edu/user/j/g/jgross/web_scripts/alphabets/results/turk-strokes/Tagalog/Tagalog_Bikol_Mintz_05_A2N57RT3GTCJHM.cstroke'
p48
aS'/afs/athena.mit.edu/user/j/g/jgross/web_scripts/alphabets/results/turk-strokes/Tagalog/Tagalog_Bikol_Mintz_06_A2N57RT3GTCJHM.cstroke'
p49
aS'/afs/athena.mit.edu/user/j/g/jgross/web_scripts/alphabets/results/turk-strokes/Tagalog/Tagalog_Bikol_Mintz_07_A2N57RT3GTCJHM.cstroke'
p50
aS'/afs/athena.mit.edu/user/j/g/jgross/web_scripts/alphabets/results/turk-strokes/Tagalog/Tagalog_Bikol_Mintz_08_A2N57RT3GTCJHM.cstroke'
p51
aS'/afs/athena.mit.edu/user/j/g/jgross/web_scripts/alphabets/results/turk-strokes/Tagalog/Tagalog_Bikol_Mintz_09_A2N57RT3GTCJHM.cstroke'
p52
aS'/afs/athena.mit.edu/user/j/g/jgross/web_scripts/alphabets/results/turk-strokes/Tagalog/Tagalog_Bikol_Mintz_10_A2N57RT3GTCJHM.cstroke'
p53
aS'/afs/athena.mit.edu/user/j/g/jgross/web_scripts/alphabets/results/turk-strokes/Tagalog/Tagalog_Bikol_Mintz_11_A2N57RT3GTCJHM.cstroke'
p54
aS'/afs/athena.mit.edu/user/j/g/jgross/web_scripts/alphabets/results/turk-strokes/Tagalog/Tagalog_Bikol_Mintz_12_A2N57RT3GTCJHM.cstroke'
p55
aS'/afs/athena.mit.edu/user/j/g/jgross/web_scripts/alphabets/results/turk-strokes/Tagalog/Tagalog_Bikol_Mintz_13_A2N57RT3GTCJHM.cstroke'
p56
aS'/afs/athena.mit.edu/user/j/g/jgross/web_scripts/alphabets/results/turk-strokes/Tagalog/Tagalog_Bikol_Mintz_14_A2N57RT3GTCJHM.cstroke'
p57
aS'/afs/athena.mit.edu/user/j/g/jgross/web_scripts/alphabets/results/turk-strokes/Tagalog/Tagalog_Bikol_Mintz_15_A2N57RT3GTCJHM.cstroke'
p58
aS'/afs/athena.mit.edu/user/j/g/jgross/web_scripts/alphabets/results/turk-strokes/Tagalog/Tagalog_Bikol_Mintz_16_A2N57RT3GTCJHM.cstroke'
p59
aS'/afs/athena.mit.edu/user/j/g/jgross/web_scripts/alphabets/results/turk-strokes/Tagalog/Tagalog_Bikol_Mintz_17_A2N57RT3GTCJHM.cstroke'
p60
assS'Tagalog_Bisaya_Hervas'
p61
(dp62
S'AAC90UV0YIREI'
p63
(lp64
S'/afs/athena.mit.edu/user/j/g/jgross/web_scripts/alphabets/results/turk-strokes/Tagalog/Tagalog_Bisaya_Hervas_01_AAC90UV0YIREI.cstroke'
p65
aS'/afs/athena.mit.edu/user/j/g/jgross/web_scripts/alphabets/results/turk-strokes/Tagalog/Tagalog_Bisaya_Hervas_02_AAC90UV0YIREI.cstroke'
p66
aS'/afs/athena.mit.edu/user/j/g/jgross/web_scripts/alphabets/results/turk-strokes/Tagalog/Tagalog_Bisaya_Hervas_03_AAC90UV0YIREI.cstroke'
p67
aS'/afs/athena.mit.edu/user/j/g/jgross/web_scripts/alphabets/results/turk-strokes/Tagalog/Tagalog_Bisaya_Hervas_04_AAC90UV0YIREI.cstroke'
p68
aS'/afs/athena.mit.edu/user/j/g/jgross/web_scripts/alphabets/results/turk-strokes/Tagalog/Tagalog_Bisaya_Hervas_05_AAC90UV0YIREI.cstroke'
p69
aS'/afs/athena.mit.edu/user/j/g/jgross/web_scripts/alphabets/results/turk-strokes/Tagalog/Tagalog_Bisaya_Hervas_06_AAC90UV0YIREI.cstroke'
p70
aS'/afs/athena.mit.edu/user/j/g/jgross/web_scripts/alphabets/results/turk-strokes/Tagalog/Tagalog_Bisaya_Hervas_07_AAC90UV0YIREI.cstroke'
p71
aS'/afs/athena.mit.edu/user/j/g/jgross/web_scripts/alphabets/results/turk-strokes/Tagalog/Tagalog_Bisaya_Hervas_08_AAC90UV0YIREI.cstroke'
p72
aS'/afs/athena.mit.edu/user/j/g/jgross/web_scripts/alphabets/results/turk-strokes/Tagalog/Tagalog_Bisaya_Hervas_09_AAC90UV0YIREI.cstroke'
p73
aS'/afs/athena.mit.edu/user/j/g/jgross/web_scripts/alphabets/results/turk-strokes/Tagalog/Tagalog_Bisaya_Hervas_10_AAC90UV0YIREI.cstroke'
p74
aS'/afs/athena.mit.edu/user/j/g/jgross/web_scripts/alphabets/results/turk-strokes/Tagalog/Tagalog_Bisaya_Hervas_11_AAC90UV0YIREI.cstroke'
p75
aS'/afs/athena.mit.edu/user/j/g/jgross/web_scripts/alphabets/results/turk-strokes/Tagalog/Tagalog_Bisaya_Hervas_12_AAC90UV0YIREI.cstroke'
p76
aS'/afs/athena.mit.edu/user/j/g/jgross/web_scripts/alphabets/results/turk-strokes/Tagalog/Tagalog_Bisaya_Hervas_13_AAC90UV0YIREI.cstroke'
p77
aS'/afs/athena.mit.edu/user/j/g/jgross/web_scripts/alphabets/results/turk-strokes/Tagalog/Tagalog_Bisaya_Hervas_14_AAC90UV0YIREI.cstroke'
p78
aS'/afs/athena.mit.edu/user/j/g/jgross/web_scripts/alphabets/results/turk-strokes/Tagalog/Tagalog_Bisaya_Hervas_15_AAC90UV0YIREI.cstroke'
p79
aS'/afs/athena.mit.edu/user/j/g/jgross/web_scripts/alphabets/results/turk-strokes/Tagalog/Tagalog_Bisaya_Hervas_16_AAC90UV0YIREI.cstroke'
p80
asS'A1W3FO0D77CF5T'
p81
(lp82
S'/afs/athena.mit.edu/user/j/g/jgross/web_scripts/alphabets/results/turk-strokes/Tagalog/Tagalog_Bisaya_Hervas_01_A1W3FO0D77CF5T.cstroke'
p83
aS'/afs/athena.mit.edu/user/j/g/jgross/web_scripts/alphabets/results/turk-strokes/Tagalog/Tagalog_Bisaya_Hervas_02_A1W3FO0D77CF5T.cstroke'
p84
aS'/afs/athena.mit.edu/user/j/g/jgross/web_scripts/alphabets/results/turk-strokes/Tagalog/Tagalog_Bisaya_Hervas_03_A1W3FO0D77CF5T.cstroke'
p85
aS'/afs/athena.mit.edu/user/j/g/jgross/web_scripts/alphabets/results/turk-strokes/Tagalog/Tagalog_Bisaya_Hervas_04_A1W3FO0D77CF5T.cstroke'
p86
aS'/afs/athena.mit.edu/user/j/g/jgross/web_scripts/alphabets/results/turk-strokes/Tagalog/Tagalog_Bisaya_Hervas_05_A1W3FO0D77CF5T.cstroke'
p87
aS'/afs/athena.mit.edu/user/j/g/jgross/web_scripts/alphabets/results/turk-strokes/Tagalog/Tagalog_Bisaya_Hervas_06_A1W3FO0D77CF5T.cstroke'
p88
aS'/afs/athena.mit.edu/user/j/g/jgross/web_scripts/alphabets/results/turk-strokes/Tagalog/Tagalog_Bisaya_Hervas_07_A1W3FO0D77CF5T.cstroke'
p89
aS'/afs/athena.mit.edu/user/j/g/jgross/web_scripts/alphabets/results/turk-strokes/Tagalog/Tagalog_Bisaya_Hervas_08_A1W3FO0D77CF5T.cstroke'
p90
aS'/afs/athena.mit.edu/user/j/g/jgross/web_scripts/alphabets/results/turk-strokes/Tagalog/Tagalog_Bisaya_Hervas_09_A1W3FO0D77CF5T.cstroke'
p91
aS'/afs/athena.mit.edu/user/j/g/jgross/web_scripts/alphabets/results/turk-strokes/Tagalog/Tagalog_Bisaya_Hervas_10_A1W3FO0D77CF5T.cstroke'
p92
aS'/afs/athena.mit.edu/user/j/g/jgross/web_scripts/alphabets/results/turk-strokes/Tagalog/Tagalog_Bisaya_Hervas_11_A1W3FO0D77CF5T.cstroke'
p93
aS'/afs/athena.mit.edu/user/j/g/jgross/web_scripts/alphabets/results/turk-strokes/Tagalog/Tagalog_Bisaya_Hervas_12_A1W3FO0D77CF5T.cstroke'
p94
aS'/afs/athena.mit.edu/user/j/g/jgross/web_scripts/alphabets/results/turk-strokes/Tagalog/Tagalog_Bisaya_Hervas_13_A1W3FO0D77CF5T.cstroke'
p95
aS'/afs/athena.mit.edu/user/j/g/jgross/web_scripts/alphabets/results/turk-strokes/Tagalog/Tagalog_Bisaya_Hervas_14_A1W3FO0D77CF5T.cstroke'
p96
aS'/afs/athena.mit.edu/user/j/g/jgross/web_scripts/alphabets/results/turk-strokes/Tagalog/Tagalog_Bisaya_Hervas_15_A1W3FO0D77CF5T.cstroke'
p97
aS'/afs/athena.mit.edu/user/j/g/jgross/web_scripts/alphabets/results/turk-strokes/Tagalog/Tagalog_Bisaya_Hervas_16_A1W3FO0D77CF5T.cstroke'
p98
asS'A3NOO9K3CY1YU5'
p99
(lp100
S'/afs/athena.mit.edu/user/j/g/jgross/web_scripts/alphabets/results/turk-strokes/Tagalog/Tagalog_Bisaya_Hervas_01_A3NOO9K3CY1YU5.cstroke'
p101
aS'/afs/athena.mit.edu/user/j/g/jgross/web_scripts/alphabets/results/turk-strokes/Tagalog/Tagalog_Bisaya_Hervas_02_A3NOO9K3CY1YU5.cstroke'
p102
aS'/afs/athena.mit.edu/user/j/g/jgross/web_scripts/alphabets/results/turk-strokes/Tagalog/Tagalog_Bisaya_Hervas_03_A3NOO9K3CY1YU5.cstroke'
p103
aS'/afs/athena.mit.edu/user/j/g/jgross/web_scripts/alphabets/results/turk-strokes/Tagalog/Tagalog_Bisaya_Hervas_04_A3NOO9K3CY1YU5.cstroke'
p104
aS'/afs/athena.mit.edu/user/j/g/jgross/web_scripts/alphabets/results/turk-strokes/Tagalog/Tagalog_Bisaya_Hervas_05_A3NOO9K3CY1YU5.cstroke'
p105
aS'/afs/athena.mit.edu/user/j/g/jgross/web_scripts/alphabets/results/turk-strokes/Tagalog/Tagalog_Bisaya_Hervas_06_A3NOO9K3CY1YU5.cstroke'
p106
aS'/afs/athena.mit.edu/user/j/g/jgross/web_scripts/alphabets/results/turk-strokes/Tagalog/Tagalog_Bisaya_Hervas_07_A3NOO9K3CY1YU5.cstroke'
p107
aS'/afs/athena.mit.edu/user/j/g/jgross/web_scripts/alphabets/results/turk-strokes/Tagalog/Tagalog_Bisaya_Hervas_08_A3NOO9K3CY1YU5.cstroke'
p108
aS'/afs/athena.mit.edu/user/j/g/jgross/web_scripts/alphabets/results/turk-strokes/Tagalog/Tagalog_Bisaya_Hervas_09_A3NOO9K3CY1YU5.cstroke'
p109
aS'/afs/athena.mit.edu/user/j/g/jgross/web_scripts/alphabets/results/turk-strokes/Tagalog/Tagalog_Bisaya_Hervas_10_A3NOO9K3CY1YU5.cstroke'
p110
aS'/afs/athena.mit.edu/user/j/g/jgross/web_scripts/alphabets/results/turk-strokes/Tagalog/Tagalog_Bisaya_Hervas_11_A3NOO9K3CY1YU5.cstroke'
p111
aS'/afs/athena.mit.edu/user/j/g/jgross/web_scripts/alphabets/results/turk-strokes/Tagalog/Tagalog_Bisaya_Hervas_12_A3NOO9K3CY1YU5.cstroke'
p112
aS'/afs/athena.mit.edu/user/j/g/jgross/web_scripts/alphabets/results/turk-strokes/Tagalog/Tagalog_Bisaya_Hervas_13_A3NOO9K3CY1YU5.cstroke'
p113
aS'/afs/athena.mit.edu/user/j/g/jgross/web_scripts/alphabets/results/turk-strokes/Tagalog/Tagalog_Bisaya_Hervas_14_A3NOO9K3CY1YU5.cstroke'
p114
aS'/afs/athena.mit.edu/user/j/g/jgross/web_scripts/alphabets/results/turk-strokes/Tagalog/Tagalog_Bisaya_Hervas_15_A3NOO9K3CY1YU5.cstroke'
p115
aS'/afs/athena.mit.edu/user/j/g/jgross/web_scripts/alphabets/results/turk-strokes/Tagalog/Tagalog_Bisaya_Hervas_16_A3NOO9K3CY1YU5.cstroke'
p116
assS'Tagalog_Doctrina_1593'
p117
(dp118
S'A1QKU9MCGCVL35'
p119
(lp120
S'/afs/athena.mit.edu/user/j/g/jgross/web_scripts/alphabets/results/turk-strokes/Tagalog/Tagalog_Doctrina_1593_01_A1QKU9MCGCVL35.cstroke'
p121
aS'/afs/athena.mit.edu/user/j/g/jgross/web_scripts/alphabets/results/turk-strokes/Tagalog/Tagalog_Doctrina_1593_02_A1QKU9MCGCVL35.cstroke'
p122
aS'/afs/athena.mit.edu/user/j/g/jgross/web_scripts/alphabets/results/turk-strokes/Tagalog/Tagalog_Doctrina_1593_03_A1QKU9MCGCVL35.cstroke'
p123
aS'/afs/athena.mit.edu/user/j/g/jgross/web_scripts/alphabets/results/turk-strokes/Tagalog/Tagalog_Doctrina_1593_04_A1QKU9MCGCVL35.cstroke'
p124
aS'/afs/athena.mit.edu/user/j/g/jgross/web_scripts/alphabets/results/turk-strokes/Tagalog/Tagalog_Doctrina_1593_05_A1QKU9MCGCVL35.cstroke'
p125
aS'/afs/athena.mit.edu/user/j/g/jgross/web_scripts/alphabets/results/turk-strokes/Tagalog/Tagalog_Doctrina_1593_06_A1QKU9MCGCVL35.cstroke'
p126
aS'/afs/athena.mit.edu/user/j/g/jgross/web_scripts/alphabets/results/turk-strokes/Tagalog/Tagalog_Doctrina_1593_07_A1QKU9MCGCVL35.cstroke'
p127
aS'/afs/athena.mit.edu/user/j/g/jgross/web_scripts/alphabets/results/turk-strokes/Tagalog/Tagalog_Doctrina_1593_08_A1QKU9MCGCVL35.cstroke'
p128
aS'/afs/athena.mit.edu/user/j/g/jgross/web_scripts/alphabets/results/turk-strokes/Tagalog/Tagalog_Doctrina_1593_09_A1QKU9MCGCVL35.cstroke'
p129
aS'/afs/athena.mit.edu/user/j/g/jgross/web_scripts/alphabets/results/turk-strokes/Tagalog/Tagalog_Doctrina_1593_10_A1QKU9MCGCVL35.cstroke'
p130
aS'/afs/athena.mit.edu/user/j/g/jgross/web_scripts/alphabets/results/turk-strokes/Tagalog/Tagalog_Doctrina_1593_11_A1QKU9MCGCVL35.cstroke'
p131
aS'/afs/athena.mit.edu/user/j/g/jgross/web_scripts/alphabets/results/turk-strokes/Tagalog/Tagalog_Doctrina_1593_12_A1QKU9MCGCVL35.cstroke'
p132
aS'/afs/athena.mit.edu/user/j/g/jgross/web_scripts/alphabets/results/turk-strokes/Tagalog/Tagalog_Doctrina_1593_13_A1QKU9MCGCVL35.cstroke'
p133
aS'/afs/athena.mit.edu/user/j/g/jgross/web_scripts/alphabets/results/turk-strokes/Tagalog/Tagalog_Doctrina_1593_14_A1QKU9MCGCVL35.cstroke'
p134
aS'/afs/athena.mit.edu/user/j/g/jgross/web_scripts/alphabets/results/turk-strokes/Tagalog/Tagalog_Doctrina_1593_15_A1QKU9MCGCVL35.cstroke'
p135
aS'/afs/athena.mit.edu/user/j/g/jgross/web_scripts/alphabets/results/turk-strokes/Tagalog/Tagalog_Doctrina_1593_16_A1QKU9MCGCVL35.cstroke'
p136
aS'/afs/athena.mit.edu/user/j/g/jgross/web_scripts/alphabets/results/turk-strokes/Tagalog/Tagalog_Doctrina_1593_17_A1QKU9MCGCVL35.cstroke'
p137
asS'A1BOPXWO3VOVZL'
p138
(lp139
S'/afs/athena.mit.edu/user/j/g/jgross/web_scripts/alphabets/results/turk-strokes/Tagalog/Tagalog_Doctrina_1593_01_A1BOPXWO3VOVZL.cstroke'
p140
aS'/afs/athena.mit.edu/user/j/g/jgross/web_scripts/alphabets/results/turk-strokes/Tagalog/Tagalog_Doctrina_1593_02_A1BOPXWO3VOVZL.cstroke'
p141
aS'/afs/athena.mit.edu/user/j/g/jgross/web_scripts/alphabets/results/turk-strokes/Tagalog/Tagalog_Doctrina_1593_03_A1BOPXWO3VOVZL.cstroke'
p142
aS'/afs/athena.mit.edu/user/j/g/jgross/web_scripts/alphabets/results/turk-strokes/Tagalog/Tagalog_Doctrina_1593_04_A1BOPXWO3VOVZL.cstroke'
p143
aS'/afs/athena.mit.edu/user/j/g/jgross/web_scripts/alphabets/results/turk-strokes/Tagalog/Tagalog_Doctrina_1593_05_A1BOPXWO3VOVZL.cstroke'
p144
aS'/afs/athena.mit.edu/user/j/g/jgross/web_scripts/alphabets/results/turk-strokes/Tagalog/Tagalog_Doctrina_1593_06_A1BOPXWO3VOVZL.cstroke'
p145
aS'/afs/athena.mit.edu/user/j/g/jgross/web_scripts/alphabets/results/turk-strokes/Tagalog/Tagalog_Doctrina_1593_07_A1BOPXWO3VOVZL.cstroke'
p146
aS'/afs/athena.mit.edu/user/j/g/jgross/web_scripts/alphabets/results/turk-strokes/Tagalog/Tagalog_Doctrina_1593_08_A1BOPXWO3VOVZL.cstroke'
p147
aS'/afs/athena.mit.edu/user/j/g/jgross/web_scripts/alphabets/results/turk-strokes/Tagalog/Tagalog_Doctrina_1593_09_A1BOPXWO3VOVZL.cstroke'
p148
aS'/afs/athena.mit.edu/user/j/g/jgross/web_scripts/alphabets/results/turk-strokes/Tagalog/Tagalog_Doctrina_1593_10_A1BOPXWO3VOVZL.cstroke'
p149
aS'/afs/athena.mit.edu/user/j/g/jgross/web_scripts/alphabets/results/turk-strokes/Tagalog/Tagalog_Doctrina_1593_11_A1BOPXWO3VOVZL.cstroke'
p150
aS'/afs/athena.mit.edu/user/j/g/jgross/web_scripts/alphabets/results/turk-strokes/Tagalog/Tagalog_Doctrina_1593_12_A1BOPXWO3VOVZL.cstroke'
p151
aS'/afs/athena.mit.edu/user/j/g/jgross/web_scripts/alphabets/results/turk-strokes/Tagalog/Tagalog_Doctrina_1593_13_A1BOPXWO3VOVZL.cstroke'
p152
aS'/afs/athena.mit.edu/user/j/g/jgross/web_scripts/alphabets/results/turk-strokes/Tagalog/Tagalog_Doctrina_1593_14_A1BOPXWO3VOVZL.cstroke'
p153
aS'/afs/athena.mit.edu/user/j/g/jgross/web_scripts/alphabets/results/turk-strokes/Tagalog/Tagalog_Doctrina_1593_15_A1BOPXWO3VOVZL.cstroke'
p154
aS'/afs/athena.mit.edu/user/j/g/jgross/web_scripts/alphabets/results/turk-strokes/Tagalog/Tagalog_Doctrina_1593_16_A1BOPXWO3VOVZL.cstroke'
p155
aS'/afs/athena.mit.edu/user/j/g/jgross/web_scripts/alphabets/results/turk-strokes/Tagalog/Tagalog_Doctrina_1593_17_A1BOPXWO3VOVZL.cstroke'
p156
asS'A23FCOCFU264XX'
p157
(lp158
S'/afs/athena.mit.edu/user/j/g/jgross/web_scripts/alphabets/results/turk-strokes/Tagalog/Tagalog_Doctrina_1593_01_A23FCOCFU264XX.cstroke'
p159
aS'/afs/athena.mit.edu/user/j/g/jgross/web_scripts/alphabets/results/turk-strokes/Tagalog/Tagalog_Doctrina_1593_02_A23FCOCFU264XX.cstroke'
p160
aS'/afs/athena.mit.edu/user/j/g/jgross/web_scripts/alphabets/results/turk-strokes/Tagalog/Tagalog_Doctrina_1593_03_A23FCOCFU264XX.cstroke'
p161
aS'/afs/athena.mit.edu/user/j/g/jgross/web_scripts/alphabets/results/turk-strokes/Tagalog/Tagalog_Doctrina_1593_04_A23FCOCFU264XX.cstroke'
p162
aS'/afs/athena.mit.edu/user/j/g/jgross/web_scripts/alphabets/results/turk-strokes/Tagalog/Tagalog_Doctrina_1593_05_A23FCOCFU264XX.cstroke'
p163
aS'/afs/athena.mit.edu/user/j/g/jgross/web_scripts/alphabets/results/turk-strokes/Tagalog/Tagalog_Doctrina_1593_06_A23FCOCFU264XX.cstroke'
p164
aS'/afs/athena.mit.edu/user/j/g/jgross/web_scripts/alphabets/results/turk-strokes/Tagalog/Tagalog_Doctrina_1593_07_A23FCOCFU264XX.cstroke'
p165
aS'/afs/athena.mit.edu/user/j/g/jgross/web_scripts/alphabets/results/turk-strokes/Tagalog/Tagalog_Doctrina_1593_08_A23FCOCFU264XX.cstroke'
p166
aS'/afs/athena.mit.edu/user/j/g/jgross/web_scripts/alphabets/results/turk-strokes/Tagalog/Tagalog_Doctrina_1593_09_A23FCOCFU264XX.cstroke'
p167
aS'/afs/athena.mit.edu/user/j/g/jgross/web_scripts/alphabets/results/turk-strokes/Tagalog/Tagalog_Doctrina_1593_10_A23FCOCFU264XX.cstroke'
p168
aS'/afs/athena.mit.edu/user/j/g/jgross/web_scripts/alphabets/results/turk-strokes/Tagalog/Tagalog_Doctrina_1593_11_A23FCOCFU264XX.cstroke'
p169
aS'/afs/athena.mit.edu/user/j/g/jgross/web_scripts/alphabets/results/turk-strokes/Tagalog/Tagalog_Doctrina_1593_12_A23FCOCFU264XX.cstroke'
p170
aS'/afs/athena.mit.edu/user/j/g/jgross/web_scripts/alphabets/results/turk-strokes/Tagalog/Tagalog_Doctrina_1593_13_A23FCOCFU264XX.cstroke'
p171
aS'/afs/athena.mit.edu/user/j/g/jgross/web_scripts/alphabets/results/turk-strokes/Tagalog/Tagalog_Doctrina_1593_14_A23FCOCFU264XX.cstroke'
p172
aS'/afs/athena.mit.edu/user/j/g/jgross/web_scripts/alphabets/results/turk-strokes/Tagalog/Tagalog_Doctrina_1593_15_A23FCOCFU264XX.cstroke'
p173
aS'/afs/athena.mit.edu/user/j/g/jgross/web_scripts/alphabets/results/turk-strokes/Tagalog/Tagalog_Doctrina_1593_16_A23FCOCFU264XX.cstroke'
p174
aS'/afs/athena.mit.edu/user/j/g/jgross/web_scripts/alphabets/results/turk-strokes/Tagalog/Tagalog_Doctrina_1593_17_A23FCOCFU264XX.cstroke'
p175
assS'latin'
p176
(dp177
S'A1YOVLLUYV1C9H'
p178
(lp179
S'/afs/athena.mit.edu/user/j/g/jgross/web_scripts/alphabets/results/turk-strokes/latin/latin_01_A1YOVLLUYV1C9H.cstroke'
p180
aS'/afs/athena.mit.edu/user/j/g/jgross/web_scripts/alphabets/results/turk-strokes/latin/latin_02_A1YOVLLUYV1C9H.cstroke'
p181
aS'/afs/athena.mit.edu/user/j/g/jgross/web_scripts/alphabets/results/turk-strokes/latin/latin_03_A1YOVLLUYV1C9H.cstroke'
p182
aS'/afs/athena.mit.edu/user/j/g/jgross/web_scripts/alphabets/results/turk-strokes/latin/latin_04_A1YOVLLUYV1C9H.cstroke'
p183
aS'/afs/athena.mit.edu/user/j/g/jgross/web_scripts/alphabets/results/turk-strokes/latin/latin_05_A1YOVLLUYV1C9H.cstroke'
p184
aS'/afs/athena.mit.edu/user/j/g/jgross/web_scripts/alphabets/results/turk-strokes/latin/latin_06_A1YOVLLUYV1C9H.cstroke'
p185
aS'/afs/athena.mit.edu/user/j/g/jgross/web_scripts/alphabets/results/turk-strokes/latin/latin_07_A1YOVLLUYV1C9H.cstroke'
p186
aS'/afs/athena.mit.edu/user/j/g/jgross/web_scripts/alphabets/results/turk-strokes/latin/latin_08_A1YOVLLUYV1C9H.cstroke'
p187
aS'/afs/athena.mit.edu/user/j/g/jgross/web_scripts/alphabets/results/turk-strokes/latin/latin_09_A1YOVLLUYV1C9H.cstroke'
p188
aS'/afs/athena.mit.edu/user/j/g/jgross/web_scripts/alphabets/results/turk-strokes/latin/latin_10_A1YOVLLUYV1C9H.cstroke'
p189
aS'/afs/athena.mit.edu/user/j/g/jgross/web_scripts/alphabets/results/turk-strokes/latin/latin_11_A1YOVLLUYV1C9H.cstroke'
p190
aS'/afs/athena.mit.edu/user/j/g/jgross/web_scripts/alphabets/results/turk-strokes/latin/latin_12_A1YOVLLUYV1C9H.cstroke'
p191
aS'/afs/athena.mit.edu/user/j/g/jgross/web_scripts/alphabets/results/turk-strokes/latin/latin_13_A1YOVLLUYV1C9H.cstroke'
p192
aS'/afs/athena.mit.edu/user/j/g/jgross/web_scripts/alphabets/results/turk-strokes/latin/latin_14_A1YOVLLUYV1C9H.cstroke'
p193
aS'/afs/athena.mit.edu/user/j/g/jgross/web_scripts/alphabets/results/turk-strokes/latin/latin_15_A1YOVLLUYV1C9H.cstroke'
p194
aS'/afs/athena.mit.edu/user/j/g/jgross/web_scripts/alphabets/results/turk-strokes/latin/latin_16_A1YOVLLUYV1C9H.cstroke'
p195
aS'/afs/athena.mit.edu/user/j/g/jgross/web_scripts/alphabets/results/turk-strokes/latin/latin_17_A1YOVLLUYV1C9H.cstroke'
p196
aS'/afs/athena.mit.edu/user/j/g/jgross/web_scripts/alphabets/results/turk-strokes/latin/latin_18_A1YOVLLUYV1C9H.cstroke'
p197
aS'/afs/athena.mit.edu/user/j/g/jgross/web_scripts/alphabets/results/turk-strokes/latin/latin_19_A1YOVLLUYV1C9H.cstroke'
p198
aS'/afs/athena.mit.edu/user/j/g/jgross/web_scripts/alphabets/results/turk-strokes/latin/latin_20_A1YOVLLUYV1C9H.cstroke'
p199
aS'/afs/athena.mit.edu/user/j/g/jgross/web_scripts/alphabets/results/turk-strokes/latin/latin_21_A1YOVLLUYV1C9H.cstroke'
p200
aS'/afs/athena.mit.edu/user/j/g/jgross/web_scripts/alphabets/results/turk-strokes/latin/latin_22_A1YOVLLUYV1C9H.cstroke'
p201
aS'/afs/athena.mit.edu/user/j/g/jgross/web_scripts/alphabets/results/turk-strokes/latin/latin_23_A1YOVLLUYV1C9H.cstroke'
p202
aS'/afs/athena.mit.edu/user/j/g/jgross/web_scripts/alphabets/results/turk-strokes/latin/latin_24_A1YOVLLUYV1C9H.cstroke'
p203
aS'/afs/athena.mit.edu/user/j/g/jgross/web_scripts/alphabets/results/turk-strokes/latin/latin_25_A1YOVLLUYV1C9H.cstroke'
p204
aS'/afs/athena.mit.edu/user/j/g/jgross/web_scripts/alphabets/results/turk-strokes/latin/latin_26_A1YOVLLUYV1C9H.cstroke'
p205
asS'A1QKU9MCGCVL35'
p206
(lp207
S'/afs/athena.mit.edu/user/j/g/jgross/web_scripts/alphabets/results/turk-strokes/latin/latin_01_A1QKU9MCGCVL35.cstroke'
p208
aS'/afs/athena.mit.edu/user/j/g/jgross/web_scripts/alphabets/results/turk-strokes/latin/latin_02_A1QKU9MCGCVL35.cstroke'
p209
aS'/afs/athena.mit.edu/user/j/g/jgross/web_scripts/alphabets/results/turk-strokes/latin/latin_03_A1QKU9MCGCVL35.cstroke'
p210
aS'/afs/athena.mit.edu/user/j/g/jgross/web_scripts/alphabets/results/turk-strokes/latin/latin_04_A1QKU9MCGCVL35.cstroke'
p211
aS'/afs/athena.mit.edu/user/j/g/jgross/web_scripts/alphabets/results/turk-strokes/latin/latin_05_A1QKU9MCGCVL35.cstroke'
p212
aS'/afs/athena.mit.edu/user/j/g/jgross/web_scripts/alphabets/results/turk-strokes/latin/latin_06_A1QKU9MCGCVL35.cstroke'
p213
aS'/afs/athena.mit.edu/user/j/g/jgross/web_scripts/alphabets/results/turk-strokes/latin/latin_07_A1QKU9MCGCVL35.cstroke'
p214
aS'/afs/athena.mit.edu/user/j/g/jgross/web_scripts/alphabets/results/turk-strokes/latin/latin_08_A1QKU9MCGCVL35.cstroke'
p215
aS'/afs/athena.mit.edu/user/j/g/jgross/web_scripts/alphabets/results/turk-strokes/latin/latin_09_A1QKU9MCGCVL35.cstroke'
p216
aS'/afs/athena.mit.edu/user/j/g/jgross/web_scripts/alphabets/results/turk-strokes/latin/latin_10_A1QKU9MCGCVL35.cstroke'
p217
aS'/afs/athena.mit.edu/user/j/g/jgross/web_scripts/alphabets/results/turk-strokes/latin/latin_11_A1QKU9MCGCVL35.cstroke'
p218
aS'/afs/athena.mit.edu/user/j/g/jgross/web_scripts/alphabets/results/turk-strokes/latin/latin_12_A1QKU9MCGCVL35.cstroke'
p219
aS'/afs/athena.mit.edu/user/j/g/jgross/web_scripts/alphabets/results/turk-strokes/latin/latin_13_A1QKU9MCGCVL35.cstroke'
p220
aS'/afs/athena.mit.edu/user/j/g/jgross/web_scripts/alphabets/results/turk-strokes/latin/latin_14_A1QKU9MCGCVL35.cstroke'
p221
aS'/afs/athena.mit.edu/user/j/g/jgross/web_scripts/alphabets/results/turk-strokes/latin/latin_15_A1QKU9MCGCVL35.cstroke'
p222
aS'/afs/athena.mit.edu/user/j/g/jgross/web_scripts/alphabets/results/turk-strokes/latin/latin_16_A1QKU9MCGCVL35.cstroke'
p223
aS'/afs/athena.mit.edu/user/j/g/jgross/web_scripts/alphabets/results/turk-strokes/latin/latin_17_A1QKU9MCGCVL35.cstroke'
p224
aS'/afs/athena.mit.edu/user/j/g/jgross/web_scripts/alphabets/results/turk-strokes/latin/latin_18_A1QKU9MCGCVL35.cstroke'
p225
aS'/afs/athena.mit.edu/user/j/g/jgross/web_scripts/alphabets/results/turk-strokes/latin/latin_19_A1QKU9MCGCVL35.cstroke'
p226
aS'/afs/athena.mit.edu/user/j/g/jgross/web_scripts/alphabets/results/turk-strokes/latin/latin_20_A1QKU9MCGCVL35.cstroke'
p227
aS'/afs/athena.mit.edu/user/j/g/jgross/web_scripts/alphabets/results/turk-strokes/latin/latin_21_A1QKU9MCGCVL35.cstroke'
p228
aS'/afs/athena.mit.edu/user/j/g/jgross/web_scripts/alphabets/results/turk-strokes/latin/latin_22_A1QKU9MCGCVL35.cstroke'
p229
aS'/afs/athena.mit.edu/user/j/g/jgross/web_scripts/alphabets/results/turk-strokes/latin/latin_23_A1QKU9MCGCVL35.cstroke'
p230
aS'/afs/athena.mit.edu/user/j/g/jgross/web_scripts/alphabets/results/turk-strokes/latin/latin_24_A1QKU9MCGCVL35.cstroke'
p231
aS'/afs/athena.mit.edu/user/j/g/jgross/web_scripts/alphabets/results/turk-strokes/latin/latin_25_A1QKU9MCGCVL35.cstroke'
p232
aS'/afs/athena.mit.edu/user/j/g/jgross/web_scripts/alphabets/results/turk-strokes/latin/latin_26_A1QKU9MCGCVL35.cstroke'
p233
asS'A2SR0EXGF0UVE1'
p234
(lp235
S'/afs/athena.mit.edu/user/j/g/jgross/web_scripts/alphabets/results/turk-strokes/latin/latin_01_A2SR0EXGF0UVE1.cstroke'
p236
aS'/afs/athena.mit.edu/user/j/g/jgross/web_scripts/alphabets/results/turk-strokes/latin/latin_02_A2SR0EXGF0UVE1.cstroke'
p237
aS'/afs/athena.mit.edu/user/j/g/jgross/web_scripts/alphabets/results/turk-strokes/latin/latin_03_A2SR0EXGF0UVE1.cstroke'
p238
aS'/afs/athena.mit.edu/user/j/g/jgross/web_scripts/alphabets/results/turk-strokes/latin/latin_04_A2SR0EXGF0UVE1.cstroke'
p239
aS'/afs/athena.mit.edu/user/j/g/jgross/web_scripts/alphabets/results/turk-strokes/latin/latin_05_A2SR0EXGF0UVE1.cstroke'
p240
aS'/afs/athena.mit.edu/user/j/g/jgross/web_scripts/alphabets/results/turk-strokes/latin/latin_06_A2SR0EXGF0UVE1.cstroke'
p241
aS'/afs/athena.mit.edu/user/j/g/jgross/web_scripts/alphabets/results/turk-strokes/latin/latin_07_A2SR0EXGF0UVE1.cstroke'
p242
aS'/afs/athena.mit.edu/user/j/g/jgross/web_scripts/alphabets/results/turk-strokes/latin/latin_08_A2SR0EXGF0UVE1.cstroke'
p243
aS'/afs/athena.mit.edu/user/j/g/jgross/web_scripts/alphabets/results/turk-strokes/latin/latin_09_A2SR0EXGF0UVE1.cstroke'
p244
aS'/afs/athena.mit.edu/user/j/g/jgross/web_scripts/alphabets/results/turk-strokes/latin/latin_10_A2SR0EXGF0UVE1.cstroke'
p245
aS'/afs/athena.mit.edu/user/j/g/jgross/web_scripts/alphabets/results/turk-strokes/latin/latin_11_A2SR0EXGF0UVE1.cstroke'
p246
aS'/afs/athena.mit.edu/user/j/g/jgross/web_scripts/alphabets/results/turk-strokes/latin/latin_12_A2SR0EXGF0UVE1.cstroke'
p247
aS'/afs/athena.mit.edu/user/j/g/jgross/web_scripts/alphabets/results/turk-strokes/latin/latin_13_A2SR0EXGF0UVE1.cstroke'
p248
aS'/afs/athena.mit.edu/user/j/g/jgross/web_scripts/alphabets/results/turk-strokes/latin/latin_14_A2SR0EXGF0UVE1.cstroke'
p249
aS'/afs/athena.mit.edu/user/j/g/jgross/web_scripts/alphabets/results/turk-strokes/latin/latin_15_A2SR0EXGF0UVE1.cstroke'
p250
aS'/afs/athena.mit.edu/user/j/g/jgross/web_scripts/alphabets/results/turk-strokes/latin/latin_16_A2SR0EXGF0UVE1.cstroke'
p251
aS'/afs/athena.mit.edu/user/j/g/jgross/web_scripts/alphabets/results/turk-strokes/latin/latin_17_A2SR0EXGF0UVE1.cstroke'
p252
aS'/afs/athena.mit.edu/user/j/g/jgross/web_scripts/alphabets/results/turk-strokes/latin/latin_18_A2SR0EXGF0UVE1.cstroke'
p253
aS'/afs/athena.mit.edu/user/j/g/jgross/web_scripts/alphabets/results/turk-strokes/latin/latin_19_A2SR0EXGF0UVE1.cstroke'
p254
aS'/afs/athena.mit.edu/user/j/g/jgross/web_scripts/alphabets/results/turk-strokes/latin/latin_20_A2SR0EXGF0UVE1.cstroke'
p255
aS'/afs/athena.mit.edu/user/j/g/jgross/web_scripts/alphabets/results/turk-strokes/latin/latin_21_A2SR0EXGF0UVE1.cstroke'
p256
aS'/afs/athena.mit.edu/user/j/g/jgross/web_scripts/alphabets/results/turk-strokes/latin/latin_22_A2SR0EXGF0UVE1.cstroke'
p257
aS'/afs/athena.mit.edu/user/j/g/jgross/web_scripts/alphabets/results/turk-strokes/latin/latin_23_A2SR0EXGF0UVE1.cstroke'
p258
aS'/afs/athena.mit.edu/user/j/g/jgross/web_scripts/alphabets/results/turk-strokes/latin/latin_24_A2SR0EXGF0UVE1.cstroke'
p259
aS'/afs/athena.mit.edu/user/j/g/jgross/web_scripts/alphabets/results/turk-strokes/latin/latin_25_A2SR0EXGF0UVE1.cstroke'
p260
aS'/afs/athena.mit.edu/user/j/g/jgross/web_scripts/alphabets/results/turk-strokes/latin/latin_26_A2SR0EXGF0UVE1.cstroke'
p261
ass.