(dp1
S'Tagalog_Bikol_Mintz'
p2
(dp3
S'A31I2WO6BYCG9X'
p4
(lp5
S'/afs/athena.mit.edu/user/j/g/jgross/web_scripts/alphabets/results/turk-images/Tagalog/Tagalog_Bikol_Mintz_01_A31I2WO6BYCG9X.png'
p6
aS'/afs/athena.mit.edu/user/j/g/jgross/web_scripts/alphabets/results/turk-images/Tagalog/Tagalog_Bikol_Mintz_02_A31I2WO6BYCG9X.png'
p7
aS'/afs/athena.mit.edu/user/j/g/jgross/web_scripts/alphabets/results/turk-images/Tagalog/Tagalog_Bikol_Mintz_03_A31I2WO6BYCG9X.png'
p8
aS'/afs/athena.mit.edu/user/j/g/jgross/web_scripts/alphabets/results/turk-images/Tagalog/Tagalog_Bikol_Mintz_04_A31I2WO6BYCG9X.png'
p9
aS'/afs/athena.mit.edu/user/j/g/jgross/web_scripts/alphabets/results/turk-images/Tagalog/Tagalog_Bikol_Mintz_05_A31I2WO6BYCG9X.png'
p10
aS'/afs/athena.mit.edu/user/j/g/jgross/web_scripts/alphabets/results/turk-images/Tagalog/Tagalog_Bikol_Mintz_06_A31I2WO6BYCG9X.png'
p11
aS'/afs/athena.mit.edu/user/j/g/jgross/web_scripts/alphabets/results/turk-images/Tagalog/Tagalog_Bikol_Mintz_07_A31I2WO6BYCG9X.png'
p12
aS'/afs/athena.mit.edu/user/j/g/jgross/web_scripts/alphabets/results/turk-images/Tagalog/Tagalog_Bikol_Mintz_08_A31I2WO6BYCG9X.png'
p13
aS'/afs/athena.mit.edu/user/j/g/jgross/web_scripts/alphabets/results/turk-images/Tagalog/Tagalog_Bikol_Mintz_09_A31I2WO6BYCG9X.png'
p14
aS'/afs/athena.mit.edu/user/j/g/jgross/web_scripts/alphabets/results/turk-images/Tagalog/Tagalog_Bikol_Mintz_10_A31I2WO6BYCG9X.png'
p15
aS'/afs/athena.mit.edu/user/j/g/jgross/web_scripts/alphabets/results/turk-images/Tagalog/Tagalog_Bikol_Mintz_11_A31I2WO6BYCG9X.png'
p16
aS'/afs/athena.mit.edu/user/j/g/jgross/web_scripts/alphabets/results/turk-images/Tagalog/Tagalog_Bikol_Mintz_12_A31I2WO6BYCG9X.png'
p17
aS'/afs/athena.mit.edu/user/j/g/jgross/web_scripts/alphabets/results/turk-images/Tagalog/Tagalog_Bikol_Mintz_13_A31I2WO6BYCG9X.png'
p18
aS'/afs/athena.mit.edu/user/j/g/jgross/web_scripts/alphabets/results/turk-images/Tagalog/Tagalog_Bikol_Mintz_14_A31I2WO6BYCG9X.png'
p19
aS'/afs/athena.mit.edu/user/j/g/jgross/web_scripts/alphabets/results/turk-images/Tagalog/Tagalog_Bikol_Mintz_15_A31I2WO6BYCG9X.png'
p20
aS'/afs/athena.mit.edu/user/j/g/jgross/web_scripts/alphabets/results/turk-images/Tagalog/Tagalog_Bikol_Mintz_16_A31I2WO6BYCG9X.png'
p21
aS'/afs/athena.mit.edu/user/j/g/jgross/web_scripts/alphabets/results/turk-images/Tagalog/Tagalog_Bikol_Mintz_17_A31I2WO6BYCG9X.png'
p22
asS'AK5SMQ4T7J68F'
p23
(lp24
S'/afs/athena.mit.edu/user/j/g/jgross/web_scripts/alphabets/results/turk-images/Tagalog/Tagalog_Bikol_Mintz_01_AK5SMQ4T7J68F.png'
p25
aS'/afs/athena.mit.edu/user/j/g/jgross/web_scripts/alphabets/results/turk-images/Tagalog/Tagalog_Bikol_Mintz_02_AK5SMQ4T7J68F.png'
p26
aS'/afs/athena.mit.edu/user/j/g/jgross/web_scripts/alphabets/results/turk-images/Tagalog/Tagalog_Bikol_Mintz_03_AK5SMQ4T7J68F.png'
p27
aS'/afs/athena.mit.edu/user/j/g/jgross/web_scripts/alphabets/results/turk-images/Tagalog/Tagalog_Bikol_Mintz_04_AK5SMQ4T7J68F.png'
p28
aS'/afs/athena.mit.edu/user/j/g/jgross/web_scripts/alphabets/results/turk-images/Tagalog/Tagalog_Bikol_Mintz_05_AK5SMQ4T7J68F.png'
p29
aS'/afs/athena.mit.edu/user/j/g/jgross/web_scripts/alphabets/results/turk-images/Tagalog/Tagalog_Bikol_Mintz_06_AK5SMQ4T7J68F.png'
p30
aS'/afs/athena.mit.edu/user/j/g/jgross/web_scripts/alphabets/results/turk-images/Tagalog/Tagalog_Bikol_Mintz_07_AK5SMQ4T7J68F.png'
p31
aS'/afs/athena.mit.edu/user/j/g/jgross/web_scripts/alphabets/results/turk-images/Tagalog/Tagalog_Bikol_Mintz_08_AK5SMQ4T7J68F.png'
p32
aS'/afs/athena.mit.edu/user/j/g/jgross/web_scripts/alphabets/results/turk-images/Tagalog/Tagalog_Bikol_Mintz_09_AK5SMQ4T7J68F.png'
p33
aS'/afs/athena.mit.edu/user/j/g/jgross/web_scripts/alphabets/results/turk-images/Tagalog/Tagalog_Bikol_Mintz_10_AK5SMQ4T7J68F.png'
p34
aS'/afs/athena.mit.edu/user/j/g/jgross/web_scripts/alphabets/results/turk-images/Tagalog/Tagalog_Bikol_Mintz_11_AK5SMQ4T7J68F.png'
p35
aS'/afs/athena.mit.edu/user/j/g/jgross/web_scripts/alphabets/results/turk-images/Tagalog/Tagalog_Bikol_Mintz_12_AK5SMQ4T7J68F.png'
p36
aS'/afs/athena.mit.edu/user/j/g/jgross/web_scripts/alphabets/results/turk-images/Tagalog/Tagalog_Bikol_Mintz_13_AK5SMQ4T7J68F.png'
p37
aS'/afs/athena.mit.edu/user/j/g/jgross/web_scripts/alphabets/results/turk-images/Tagalog/Tagalog_Bikol_Mintz_14_AK5SMQ4T7J68F.png'
p38
aS'/afs/athena.mit.edu/user/j/g/jgross/web_scripts/alphabets/results/turk-images/Tagalog/Tagalog_Bikol_Mintz_15_AK5SMQ4T7J68F.png'
p39
aS'/afs/athena.mit.edu/user/j/g/jgross/web_scripts/alphabets/results/turk-images/Tagalog/Tagalog_Bikol_Mintz_16_AK5SMQ4T7J68F.png'
p40
aS'/afs/athena.mit.edu/user/j/g/jgross/web_scripts/alphabets/results/turk-images/Tagalog/Tagalog_Bikol_Mintz_17_AK5SMQ4T7J68F.png'
p41
asS'A2N57RT3GTCJHM'
p42
(lp43
S'/afs/athena.mit.edu/user/j/g/jgross/web_scripts/alphabets/results/turk-images/Tagalog/Tagalog_Bikol_Mintz_01_A2N57RT3GTCJHM.png'
p44
aS'/afs/athena.mit.edu/user/j/g/jgross/web_scripts/alphabets/results/turk-images/Tagalog/Tagalog_Bikol_Mintz_02_A2N57RT3GTCJHM.png'
p45
aS'/afs/athena.mit.edu/user/j/g/jgross/web_scripts/alphabets/results/turk-images/Tagalog/Tagalog_Bikol_Mintz_03_A2N57RT3GTCJHM.png'
p46
aS'/afs/athena.mit.edu/user/j/g/jgross/web_scripts/alphabets/results/turk-images/Tagalog/Tagalog_Bikol_Mintz_04_A2N57RT3GTCJHM.png'
p47
aS'/afs/athena.mit.edu/user/j/g/jgross/web_scripts/alphabets/results/turk-images/Tagalog/Tagalog_Bikol_Mintz_05_A2N57RT3GTCJHM.png'
p48
aS'/afs/athena.mit.edu/user/j/g/jgross/web_scripts/alphabets/results/turk-images/Tagalog/Tagalog_Bikol_Mintz_06_A2N57RT3GTCJHM.png'
p49
aS'/afs/athena.mit.edu/user/j/g/jgross/web_scripts/alphabets/results/turk-images/Tagalog/Tagalog_Bikol_Mintz_07_A2N57RT3GTCJHM.png'
p50
aS'/afs/athena.mit.edu/user/j/g/jgross/web_scripts/alphabets/results/turk-images/Tagalog/Tagalog_Bikol_Mintz_08_A2N57RT3GTCJHM.png'
p51
aS'/afs/athena.mit.edu/user/j/g/jgross/web_scripts/alphabets/results/turk-images/Tagalog/Tagalog_Bikol_Mintz_09_A2N57RT3GTCJHM.png'
p52
aS'/afs/athena.mit.edu/user/j/g/jgross/web_scripts/alphabets/results/turk-images/Tagalog/Tagalog_Bikol_Mintz_10_A2N57RT3GTCJHM.png'
p53
aS'/afs/athena.mit.edu/user/j/g/jgross/web_scripts/alphabets/results/turk-images/Tagalog/Tagalog_Bikol_Mintz_11_A2N57RT3GTCJHM.png'
p54
aS'/afs/athena.mit.edu/user/j/g/jgross/web_scripts/alphabets/results/turk-images/Tagalog/Tagalog_Bikol_Mintz_12_A2N57RT3GTCJHM.png'
p55
aS'/afs/athena.mit.edu/user/j/g/jgross/web_scripts/alphabets/results/turk-images/Tagalog/Tagalog_Bikol_Mintz_13_A2N57RT3GTCJHM.png'
p56
aS'/afs/athena.mit.edu/user/j/g/jgross/web_scripts/alphabets/results/turk-images/Tagalog/Tagalog_Bikol_Mintz_14_A2N57RT3GTCJHM.png'
p57
aS'/afs/athena.mit.edu/user/j/g/jgross/web_scripts/alphabets/results/turk-images/Tagalog/Tagalog_Bikol_Mintz_15_A2N57RT3GTCJHM.png'
p58
aS'/afs/athena.mit.edu/user/j/g/jgross/web_scripts/alphabets/results/turk-images/Tagalog/Tagalog_Bikol_Mintz_16_A2N57RT3GTCJHM.png'
p59
aS'/afs/athena.mit.edu/user/j/g/jgross/web_scripts/alphabets/results/turk-images/Tagalog/Tagalog_Bikol_Mintz_17_A2N57RT3GTCJHM.png'
p60
assS'Tagalog_Bisaya_Hervas'
p61
(dp62
S'AAC90UV0YIREI'
p63
(lp64
S'/afs/athena.mit.edu/user/j/g/jgross/web_scripts/alphabets/results/turk-images/Tagalog/Tagalog_Bisaya_Hervas_01_AAC90UV0YIREI.png'
p65
aS'/afs/athena.mit.edu/user/j/g/jgross/web_scripts/alphabets/results/turk-images/Tagalog/Tagalog_Bisaya_Hervas_02_AAC90UV0YIREI.png'
p66
aS'/afs/athena.mit.edu/user/j/g/jgross/web_scripts/alphabets/results/turk-images/Tagalog/Tagalog_Bisaya_Hervas_03_AAC90UV0YIREI.png'
p67
aS'/afs/athena.mit.edu/user/j/g/jgross/web_scripts/alphabets/results/turk-images/Tagalog/Tagalog_Bisaya_Hervas_04_AAC90UV0YIREI.png'
p68
aS'/afs/athena.mit.edu/user/j/g/jgross/web_scripts/alphabets/results/turk-images/Tagalog/Tagalog_Bisaya_Hervas_05_AAC90UV0YIREI.png'
p69
aS'/afs/athena.mit.edu/user/j/g/jgross/web_scripts/alphabets/results/turk-images/Tagalog/Tagalog_Bisaya_Hervas_06_AAC90UV0YIREI.png'
p70
aS'/afs/athena.mit.edu/user/j/g/jgross/web_scripts/alphabets/results/turk-images/Tagalog/Tagalog_Bisaya_Hervas_07_AAC90UV0YIREI.png'
p71
aS'/afs/athena.mit.edu/user/j/g/jgross/web_scripts/alphabets/results/turk-images/Tagalog/Tagalog_Bisaya_Hervas_08_AAC90UV0YIREI.png'
p72
aS'/afs/athena.mit.edu/user/j/g/jgross/web_scripts/alphabets/results/turk-images/Tagalog/Tagalog_Bisaya_Hervas_09_AAC90UV0YIREI.png'
p73
aS'/afs/athena.mit.edu/user/j/g/jgross/web_scripts/alphabets/results/turk-images/Tagalog/Tagalog_Bisaya_Hervas_10_AAC90UV0YIREI.png'
p74
aS'/afs/athena.mit.edu/user/j/g/jgross/web_scripts/alphabets/results/turk-images/Tagalog/Tagalog_Bisaya_Hervas_11_AAC90UV0YIREI.png'
p75
aS'/afs/athena.mit.edu/user/j/g/jgross/web_scripts/alphabets/results/turk-images/Tagalog/Tagalog_Bisaya_Hervas_12_AAC90UV0YIREI.png'
p76
aS'/afs/athena.mit.edu/user/j/g/jgross/web_scripts/alphabets/results/turk-images/Tagalog/Tagalog_Bisaya_Hervas_13_AAC90UV0YIREI.png'
p77
aS'/afs/athena.mit.edu/user/j/g/jgross/web_scripts/alphabets/results/turk-images/Tagalog/Tagalog_Bisaya_Hervas_14_AAC90UV0YIREI.png'
p78
aS'/afs/athena.mit.edu/user/j/g/jgross/web_scripts/alphabets/results/turk-images/Tagalog/Tagalog_Bisaya_Hervas_15_AAC90UV0YIREI.png'
p79
aS'/afs/athena.mit.edu/user/j/g/jgross/web_scripts/alphabets/results/turk-images/Tagalog/Tagalog_Bisaya_Hervas_16_AAC90UV0YIREI.png'
p80
asS'A1W3FO0D77CF5T'
p81
(lp82
S'/afs/athena.mit.edu/user/j/g/jgross/web_scripts/alphabets/results/turk-images/Tagalog/Tagalog_Bisaya_Hervas_01_A1W3FO0D77CF5T.png'
p83
aS'/afs/athena.mit.edu/user/j/g/jgross/web_scripts/alphabets/results/turk-images/Tagalog/Tagalog_Bisaya_Hervas_02_A1W3FO0D77CF5T.png'
p84
aS'/afs/athena.mit.edu/user/j/g/jgross/web_scripts/alphabets/results/turk-images/Tagalog/Tagalog_Bisaya_Hervas_03_A1W3FO0D77CF5T.png'
p85
aS'/afs/athena.mit.edu/user/j/g/jgross/web_scripts/alphabets/results/turk-images/Tagalog/Tagalog_Bisaya_Hervas_04_A1W3FO0D77CF5T.png'
p86
aS'/afs/athena.mit.edu/user/j/g/jgross/web_scripts/alphabets/results/turk-images/Tagalog/Tagalog_Bisaya_Hervas_05_A1W3FO0D77CF5T.png'
p87
aS'/afs/athena.mit.edu/user/j/g/jgross/web_scripts/alphabets/results/turk-images/Tagalog/Tagalog_Bisaya_Hervas_06_A1W3FO0D77CF5T.png'
p88
aS'/afs/athena.mit.edu/user/j/g/jgross/web_scripts/alphabets/results/turk-images/Tagalog/Tagalog_Bisaya_Hervas_07_A1W3FO0D77CF5T.png'
p89
aS'/afs/athena.mit.edu/user/j/g/jgross/web_scripts/alphabets/results/turk-images/Tagalog/Tagalog_Bisaya_Hervas_08_A1W3FO0D77CF5T.png'
p90
aS'/afs/athena.mit.edu/user/j/g/jgross/web_scripts/alphabets/results/turk-images/Tagalog/Tagalog_Bisaya_Hervas_09_A1W3FO0D77CF5T.png'
p91
aS'/afs/athena.mit.edu/user/j/g/jgross/web_scripts/alphabets/results/turk-images/Tagalog/Tagalog_Bisaya_Hervas_10_A1W3FO0D77CF5T.png'
p92
aS'/afs/athena.mit.edu/user/j/g/jgross/web_scripts/alphabets/results/turk-images/Tagalog/Tagalog_Bisaya_Hervas_11_A1W3FO0D77CF5T.png'
p93
aS'/afs/athena.mit.edu/user/j/g/jgross/web_scripts/alphabets/results/turk-images/Tagalog/Tagalog_Bisaya_Hervas_12_A1W3FO0D77CF5T.png'
p94
aS'/afs/athena.mit.edu/user/j/g/jgross/web_scripts/alphabets/results/turk-images/Tagalog/Tagalog_Bisaya_Hervas_13_A1W3FO0D77CF5T.png'
p95
aS'/afs/athena.mit.edu/user/j/g/jgross/web_scripts/alphabets/results/turk-images/Tagalog/Tagalog_Bisaya_Hervas_14_A1W3FO0D77CF5T.png'
p96
aS'/afs/athena.mit.edu/user/j/g/jgross/web_scripts/alphabets/results/turk-images/Tagalog/Tagalog_Bisaya_Hervas_15_A1W3FO0D77CF5T.png'
p97
aS'/afs/athena.mit.edu/user/j/g/jgross/web_scripts/alphabets/results/turk-images/Tagalog/Tagalog_Bisaya_Hervas_16_A1W3FO0D77CF5T.png'
p98
asS'A3NOO9K3CY1YU5'
p99
(lp100
S'/afs/athena.mit.edu/user/j/g/jgross/web_scripts/alphabets/results/turk-images/Tagalog/Tagalog_Bisaya_Hervas_01_A3NOO9K3CY1YU5.png'
p101
aS'/afs/athena.mit.edu/user/j/g/jgross/web_scripts/alphabets/results/turk-images/Tagalog/Tagalog_Bisaya_Hervas_02_A3NOO9K3CY1YU5.png'
p102
aS'/afs/athena.mit.edu/user/j/g/jgross/web_scripts/alphabets/results/turk-images/Tagalog/Tagalog_Bisaya_Hervas_03_A3NOO9K3CY1YU5.png'
p103
aS'/afs/athena.mit.edu/user/j/g/jgross/web_scripts/alphabets/results/turk-images/Tagalog/Tagalog_Bisaya_Hervas_04_A3NOO9K3CY1YU5.png'
p104
aS'/afs/athena.mit.edu/user/j/g/jgross/web_scripts/alphabets/results/turk-images/Tagalog/Tagalog_Bisaya_Hervas_05_A3NOO9K3CY1YU5.png'
p105
aS'/afs/athena.mit.edu/user/j/g/jgross/web_scripts/alphabets/results/turk-images/Tagalog/Tagalog_Bisaya_Hervas_06_A3NOO9K3CY1YU5.png'
p106
aS'/afs/athena.mit.edu/user/j/g/jgross/web_scripts/alphabets/results/turk-images/Tagalog/Tagalog_Bisaya_Hervas_07_A3NOO9K3CY1YU5.png'
p107
aS'/afs/athena.mit.edu/user/j/g/jgross/web_scripts/alphabets/results/turk-images/Tagalog/Tagalog_Bisaya_Hervas_08_A3NOO9K3CY1YU5.png'
p108
aS'/afs/athena.mit.edu/user/j/g/jgross/web_scripts/alphabets/results/turk-images/Tagalog/Tagalog_Bisaya_Hervas_09_A3NOO9K3CY1YU5.png'
p109
aS'/afs/athena.mit.edu/user/j/g/jgross/web_scripts/alphabets/results/turk-images/Tagalog/Tagalog_Bisaya_Hervas_10_A3NOO9K3CY1YU5.png'
p110
aS'/afs/athena.mit.edu/user/j/g/jgross/web_scripts/alphabets/results/turk-images/Tagalog/Tagalog_Bisaya_Hervas_11_A3NOO9K3CY1YU5.png'
p111
aS'/afs/athena.mit.edu/user/j/g/jgross/web_scripts/alphabets/results/turk-images/Tagalog/Tagalog_Bisaya_Hervas_12_A3NOO9K3CY1YU5.png'
p112
aS'/afs/athena.mit.edu/user/j/g/jgross/web_scripts/alphabets/results/turk-images/Tagalog/Tagalog_Bisaya_Hervas_13_A3NOO9K3CY1YU5.png'
p113
aS'/afs/athena.mit.edu/user/j/g/jgross/web_scripts/alphabets/results/turk-images/Tagalog/Tagalog_Bisaya_Hervas_14_A3NOO9K3CY1YU5.png'
p114
aS'/afs/athena.mit.edu/user/j/g/jgross/web_scripts/alphabets/results/turk-images/Tagalog/Tagalog_Bisaya_Hervas_15_A3NOO9K3CY1YU5.png'
p115
aS'/afs/athena.mit.edu/user/j/g/jgross/web_scripts/alphabets/results/turk-images/Tagalog/Tagalog_Bisaya_Hervas_16_A3NOO9K3CY1YU5.png'
p116
assS'Tagalog_Doctrina_1593'
p117
(dp118
S'A1QKU9MCGCVL35'
p119
(lp120
S'/afs/athena.mit.edu/user/j/g/jgross/web_scripts/alphabets/results/turk-images/Tagalog/Tagalog_Doctrina_1593_01_A1QKU9MCGCVL35.png'
p121
aS'/afs/athena.mit.edu/user/j/g/jgross/web_scripts/alphabets/results/turk-images/Tagalog/Tagalog_Doctrina_1593_02_A1QKU9MCGCVL35.png'
p122
aS'/afs/athena.mit.edu/user/j/g/jgross/web_scripts/alphabets/results/turk-images/Tagalog/Tagalog_Doctrina_1593_03_A1QKU9MCGCVL35.png'
p123
aS'/afs/athena.mit.edu/user/j/g/jgross/web_scripts/alphabets/results/turk-images/Tagalog/Tagalog_Doctrina_1593_04_A1QKU9MCGCVL35.png'
p124
aS'/afs/athena.mit.edu/user/j/g/jgross/web_scripts/alphabets/results/turk-images/Tagalog/Tagalog_Doctrina_1593_05_A1QKU9MCGCVL35.png'
p125
aS'/afs/athena.mit.edu/user/j/g/jgross/web_scripts/alphabets/results/turk-images/Tagalog/Tagalog_Doctrina_1593_06_A1QKU9MCGCVL35.png'
p126
aS'/afs/athena.mit.edu/user/j/g/jgross/web_scripts/alphabets/results/turk-images/Tagalog/Tagalog_Doctrina_1593_07_A1QKU9MCGCVL35.png'
p127
aS'/afs/athena.mit.edu/user/j/g/jgross/web_scripts/alphabets/results/turk-images/Tagalog/Tagalog_Doctrina_1593_08_A1QKU9MCGCVL35.png'
p128
aS'/afs/athena.mit.edu/user/j/g/jgross/web_scripts/alphabets/results/turk-images/Tagalog/Tagalog_Doctrina_1593_09_A1QKU9MCGCVL35.png'
p129
aS'/afs/athena.mit.edu/user/j/g/jgross/web_scripts/alphabets/results/turk-images/Tagalog/Tagalog_Doctrina_1593_10_A1QKU9MCGCVL35.png'
p130
aS'/afs/athena.mit.edu/user/j/g/jgross/web_scripts/alphabets/results/turk-images/Tagalog/Tagalog_Doctrina_1593_11_A1QKU9MCGCVL35.png'
p131
aS'/afs/athena.mit.edu/user/j/g/jgross/web_scripts/alphabets/results/turk-images/Tagalog/Tagalog_Doctrina_1593_12_A1QKU9MCGCVL35.png'
p132
aS'/afs/athena.mit.edu/user/j/g/jgross/web_scripts/alphabets/results/turk-images/Tagalog/Tagalog_Doctrina_1593_13_A1QKU9MCGCVL35.png'
p133
aS'/afs/athena.mit.edu/user/j/g/jgross/web_scripts/alphabets/results/turk-images/Tagalog/Tagalog_Doctrina_1593_14_A1QKU9MCGCVL35.png'
p134
aS'/afs/athena.mit.edu/user/j/g/jgross/web_scripts/alphabets/results/turk-images/Tagalog/Tagalog_Doctrina_1593_15_A1QKU9MCGCVL35.png'
p135
aS'/afs/athena.mit.edu/user/j/g/jgross/web_scripts/alphabets/results/turk-images/Tagalog/Tagalog_Doctrina_1593_16_A1QKU9MCGCVL35.png'
p136
aS'/afs/athena.mit.edu/user/j/g/jgross/web_scripts/alphabets/results/turk-images/Tagalog/Tagalog_Doctrina_1593_17_A1QKU9MCGCVL35.png'
p137
asS'A1BOPXWO3VOVZL'
p138
(lp139
S'/afs/athena.mit.edu/user/j/g/jgross/web_scripts/alphabets/results/turk-images/Tagalog/Tagalog_Doctrina_1593_01_A1BOPXWO3VOVZL.png'
p140
aS'/afs/athena.mit.edu/user/j/g/jgross/web_scripts/alphabets/results/turk-images/Tagalog/Tagalog_Doctrina_1593_02_A1BOPXWO3VOVZL.png'
p141
aS'/afs/athena.mit.edu/user/j/g/jgross/web_scripts/alphabets/results/turk-images/Tagalog/Tagalog_Doctrina_1593_03_A1BOPXWO3VOVZL.png'
p142
aS'/afs/athena.mit.edu/user/j/g/jgross/web_scripts/alphabets/results/turk-images/Tagalog/Tagalog_Doctrina_1593_04_A1BOPXWO3VOVZL.png'
p143
aS'/afs/athena.mit.edu/user/j/g/jgross/web_scripts/alphabets/results/turk-images/Tagalog/Tagalog_Doctrina_1593_05_A1BOPXWO3VOVZL.png'
p144
aS'/afs/athena.mit.edu/user/j/g/jgross/web_scripts/alphabets/results/turk-images/Tagalog/Tagalog_Doctrina_1593_06_A1BOPXWO3VOVZL.png'
p145
aS'/afs/athena.mit.edu/user/j/g/jgross/web_scripts/alphabets/results/turk-images/Tagalog/Tagalog_Doctrina_1593_07_A1BOPXWO3VOVZL.png'
p146
aS'/afs/athena.mit.edu/user/j/g/jgross/web_scripts/alphabets/results/turk-images/Tagalog/Tagalog_Doctrina_1593_08_A1BOPXWO3VOVZL.png'
p147
aS'/afs/athena.mit.edu/user/j/g/jgross/web_scripts/alphabets/results/turk-images/Tagalog/Tagalog_Doctrina_1593_09_A1BOPXWO3VOVZL.png'
p148
aS'/afs/athena.mit.edu/user/j/g/jgross/web_scripts/alphabets/results/turk-images/Tagalog/Tagalog_Doctrina_1593_10_A1BOPXWO3VOVZL.png'
p149
aS'/afs/athena.mit.edu/user/j/g/jgross/web_scripts/alphabets/results/turk-images/Tagalog/Tagalog_Doctrina_1593_11_A1BOPXWO3VOVZL.png'
p150
aS'/afs/athena.mit.edu/user/j/g/jgross/web_scripts/alphabets/results/turk-images/Tagalog/Tagalog_Doctrina_1593_12_A1BOPXWO3VOVZL.png'
p151
aS'/afs/athena.mit.edu/user/j/g/jgross/web_scripts/alphabets/results/turk-images/Tagalog/Tagalog_Doctrina_1593_13_A1BOPXWO3VOVZL.png'
p152
aS'/afs/athena.mit.edu/user/j/g/jgross/web_scripts/alphabets/results/turk-images/Tagalog/Tagalog_Doctrina_1593_14_A1BOPXWO3VOVZL.png'
p153
aS'/afs/athena.mit.edu/user/j/g/jgross/web_scripts/alphabets/results/turk-images/Tagalog/Tagalog_Doctrina_1593_15_A1BOPXWO3VOVZL.png'
p154
aS'/afs/athena.mit.edu/user/j/g/jgross/web_scripts/alphabets/results/turk-images/Tagalog/Tagalog_Doctrina_1593_16_A1BOPXWO3VOVZL.png'
p155
aS'/afs/athena.mit.edu/user/j/g/jgross/web_scripts/alphabets/results/turk-images/Tagalog/Tagalog_Doctrina_1593_17_A1BOPXWO3VOVZL.png'
p156
asS'A23FCOCFU264XX'
p157
(lp158
S'/afs/athena.mit.edu/user/j/g/jgross/web_scripts/alphabets/results/turk-images/Tagalog/Tagalog_Doctrina_1593_01_A23FCOCFU264XX.png'
p159
aS'/afs/athena.mit.edu/user/j/g/jgross/web_scripts/alphabets/results/turk-images/Tagalog/Tagalog_Doctrina_1593_02_A23FCOCFU264XX.png'
p160
aS'/afs/athena.mit.edu/user/j/g/jgross/web_scripts/alphabets/results/turk-images/Tagalog/Tagalog_Doctrina_1593_03_A23FCOCFU264XX.png'
p161
aS'/afs/athena.mit.edu/user/j/g/jgross/web_scripts/alphabets/results/turk-images/Tagalog/Tagalog_Doctrina_1593_04_A23FCOCFU264XX.png'
p162
aS'/afs/athena.mit.edu/user/j/g/jgross/web_scripts/alphabets/results/turk-images/Tagalog/Tagalog_Doctrina_1593_05_A23FCOCFU264XX.png'
p163
aS'/afs/athena.mit.edu/user/j/g/jgross/web_scripts/alphabets/results/turk-images/Tagalog/Tagalog_Doctrina_1593_06_A23FCOCFU264XX.png'
p164
aS'/afs/athena.mit.edu/user/j/g/jgross/web_scripts/alphabets/results/turk-images/Tagalog/Tagalog_Doctrina_1593_07_A23FCOCFU264XX.png'
p165
aS'/afs/athena.mit.edu/user/j/g/jgross/web_scripts/alphabets/results/turk-images/Tagalog/Tagalog_Doctrina_1593_08_A23FCOCFU264XX.png'
p166
aS'/afs/athena.mit.edu/user/j/g/jgross/web_scripts/alphabets/results/turk-images/Tagalog/Tagalog_Doctrina_1593_09_A23FCOCFU264XX.png'
p167
aS'/afs/athena.mit.edu/user/j/g/jgross/web_scripts/alphabets/results/turk-images/Tagalog/Tagalog_Doctrina_1593_10_A23FCOCFU264XX.png'
p168
aS'/afs/athena.mit.edu/user/j/g/jgross/web_scripts/alphabets/results/turk-images/Tagalog/Tagalog_Doctrina_1593_11_A23FCOCFU264XX.png'
p169
aS'/afs/athena.mit.edu/user/j/g/jgross/web_scripts/alphabets/results/turk-images/Tagalog/Tagalog_Doctrina_1593_12_A23FCOCFU264XX.png'
p170
aS'/afs/athena.mit.edu/user/j/g/jgross/web_scripts/alphabets/results/turk-images/Tagalog/Tagalog_Doctrina_1593_13_A23FCOCFU264XX.png'
p171
aS'/afs/athena.mit.edu/user/j/g/jgross/web_scripts/alphabets/results/turk-images/Tagalog/Tagalog_Doctrina_1593_14_A23FCOCFU264XX.png'
p172
aS'/afs/athena.mit.edu/user/j/g/jgross/web_scripts/alphabets/results/turk-images/Tagalog/Tagalog_Doctrina_1593_15_A23FCOCFU264XX.png'
p173
aS'/afs/athena.mit.edu/user/j/g/jgross/web_scripts/alphabets/results/turk-images/Tagalog/Tagalog_Doctrina_1593_16_A23FCOCFU264XX.png'
p174
aS'/afs/athena.mit.edu/user/j/g/jgross/web_scripts/alphabets/results/turk-images/Tagalog/Tagalog_Doctrina_1593_17_A23FCOCFU264XX.png'
p175
assS'latin'
p176
(dp177
S'A1YOVLLUYV1C9H'
p178
(lp179
S'/afs/athena.mit.edu/user/j/g/jgross/web_scripts/alphabets/results/turk-images/latin/latin_01_A1YOVLLUYV1C9H.png'
p180
aS'/afs/athena.mit.edu/user/j/g/jgross/web_scripts/alphabets/results/turk-images/latin/latin_02_A1YOVLLUYV1C9H.png'
p181
aS'/afs/athena.mit.edu/user/j/g/jgross/web_scripts/alphabets/results/turk-images/latin/latin_03_A1YOVLLUYV1C9H.png'
p182
aS'/afs/athena.mit.edu/user/j/g/jgross/web_scripts/alphabets/results/turk-images/latin/latin_04_A1YOVLLUYV1C9H.png'
p183
aS'/afs/athena.mit.edu/user/j/g/jgross/web_scripts/alphabets/results/turk-images/latin/latin_05_A1YOVLLUYV1C9H.png'
p184
aS'/afs/athena.mit.edu/user/j/g/jgross/web_scripts/alphabets/results/turk-images/latin/latin_06_A1YOVLLUYV1C9H.png'
p185
aS'/afs/athena.mit.edu/user/j/g/jgross/web_scripts/alphabets/results/turk-images/latin/latin_07_A1YOVLLUYV1C9H.png'
p186
aS'/afs/athena.mit.edu/user/j/g/jgross/web_scripts/alphabets/results/turk-images/latin/latin_08_A1YOVLLUYV1C9H.png'
p187
aS'/afs/athena.mit.edu/user/j/g/jgross/web_scripts/alphabets/results/turk-images/latin/latin_09_A1YOVLLUYV1C9H.png'
p188
aS'/afs/athena.mit.edu/user/j/g/jgross/web_scripts/alphabets/results/turk-images/latin/latin_10_A1YOVLLUYV1C9H.png'
p189
aS'/afs/athena.mit.edu/user/j/g/jgross/web_scripts/alphabets/results/turk-images/latin/latin_11_A1YOVLLUYV1C9H.png'
p190
aS'/afs/athena.mit.edu/user/j/g/jgross/web_scripts/alphabets/results/turk-images/latin/latin_12_A1YOVLLUYV1C9H.png'
p191
aS'/afs/athena.mit.edu/user/j/g/jgross/web_scripts/alphabets/results/turk-images/latin/latin_13_A1YOVLLUYV1C9H.png'
p192
aS'/afs/athena.mit.edu/user/j/g/jgross/web_scripts/alphabets/results/turk-images/latin/latin_14_A1YOVLLUYV1C9H.png'
p193
aS'/afs/athena.mit.edu/user/j/g/jgross/web_scripts/alphabets/results/turk-images/latin/latin_15_A1YOVLLUYV1C9H.png'
p194
aS'/afs/athena.mit.edu/user/j/g/jgross/web_scripts/alphabets/results/turk-images/latin/latin_16_A1YOVLLUYV1C9H.png'
p195
aS'/afs/athena.mit.edu/user/j/g/jgross/web_scripts/alphabets/results/turk-images/latin/latin_17_A1YOVLLUYV1C9H.png'
p196
aS'/afs/athena.mit.edu/user/j/g/jgross/web_scripts/alphabets/results/turk-images/latin/latin_18_A1YOVLLUYV1C9H.png'
p197
aS'/afs/athena.mit.edu/user/j/g/jgross/web_scripts/alphabets/results/turk-images/latin/latin_19_A1YOVLLUYV1C9H.png'
p198
aS'/afs/athena.mit.edu/user/j/g/jgross/web_scripts/alphabets/results/turk-images/latin/latin_20_A1YOVLLUYV1C9H.png'
p199
aS'/afs/athena.mit.edu/user/j/g/jgross/web_scripts/alphabets/results/turk-images/latin/latin_21_A1YOVLLUYV1C9H.png'
p200
aS'/afs/athena.mit.edu/user/j/g/jgross/web_scripts/alphabets/results/turk-images/latin/latin_22_A1YOVLLUYV1C9H.png'
p201
aS'/afs/athena.mit.edu/user/j/g/jgross/web_scripts/alphabets/results/turk-images/latin/latin_23_A1YOVLLUYV1C9H.png'
p202
aS'/afs/athena.mit.edu/user/j/g/jgross/web_scripts/alphabets/results/turk-images/latin/latin_24_A1YOVLLUYV1C9H.png'
p203
aS'/afs/athena.mit.edu/user/j/g/jgross/web_scripts/alphabets/results/turk-images/latin/latin_25_A1YOVLLUYV1C9H.png'
p204
aS'/afs/athena.mit.edu/user/j/g/jgross/web_scripts/alphabets/results/turk-images/latin/latin_26_A1YOVLLUYV1C9H.png'
p205
asS'A1QKU9MCGCVL35'
p206
(lp207
S'/afs/athena.mit.edu/user/j/g/jgross/web_scripts/alphabets/results/turk-images/latin/latin_01_A1QKU9MCGCVL35.png'
p208
aS'/afs/athena.mit.edu/user/j/g/jgross/web_scripts/alphabets/results/turk-images/latin/latin_02_A1QKU9MCGCVL35.png'
p209
aS'/afs/athena.mit.edu/user/j/g/jgross/web_scripts/alphabets/results/turk-images/latin/latin_03_A1QKU9MCGCVL35.png'
p210
aS'/afs/athena.mit.edu/user/j/g/jgross/web_scripts/alphabets/results/turk-images/latin/latin_04_A1QKU9MCGCVL35.png'
p211
aS'/afs/athena.mit.edu/user/j/g/jgross/web_scripts/alphabets/results/turk-images/latin/latin_05_A1QKU9MCGCVL35.png'
p212
aS'/afs/athena.mit.edu/user/j/g/jgross/web_scripts/alphabets/results/turk-images/latin/latin_06_A1QKU9MCGCVL35.png'
p213
aS'/afs/athena.mit.edu/user/j/g/jgross/web_scripts/alphabets/results/turk-images/latin/latin_07_A1QKU9MCGCVL35.png'
p214
aS'/afs/athena.mit.edu/user/j/g/jgross/web_scripts/alphabets/results/turk-images/latin/latin_08_A1QKU9MCGCVL35.png'
p215
aS'/afs/athena.mit.edu/user/j/g/jgross/web_scripts/alphabets/results/turk-images/latin/latin_09_A1QKU9MCGCVL35.png'
p216
aS'/afs/athena.mit.edu/user/j/g/jgross/web_scripts/alphabets/results/turk-images/latin/latin_10_A1QKU9MCGCVL35.png'
p217
aS'/afs/athena.mit.edu/user/j/g/jgross/web_scripts/alphabets/results/turk-images/latin/latin_11_A1QKU9MCGCVL35.png'
p218
aS'/afs/athena.mit.edu/user/j/g/jgross/web_scripts/alphabets/results/turk-images/latin/latin_12_A1QKU9MCGCVL35.png'
p219
aS'/afs/athena.mit.edu/user/j/g/jgross/web_scripts/alphabets/results/turk-images/latin/latin_13_A1QKU9MCGCVL35.png'
p220
aS'/afs/athena.mit.edu/user/j/g/jgross/web_scripts/alphabets/results/turk-images/latin/latin_14_A1QKU9MCGCVL35.png'
p221
aS'/afs/athena.mit.edu/user/j/g/jgross/web_scripts/alphabets/results/turk-images/latin/latin_15_A1QKU9MCGCVL35.png'
p222
aS'/afs/athena.mit.edu/user/j/g/jgross/web_scripts/alphabets/results/turk-images/latin/latin_16_A1QKU9MCGCVL35.png'
p223
aS'/afs/athena.mit.edu/user/j/g/jgross/web_scripts/alphabets/results/turk-images/latin/latin_17_A1QKU9MCGCVL35.png'
p224
aS'/afs/athena.mit.edu/user/j/g/jgross/web_scripts/alphabets/results/turk-images/latin/latin_18_A1QKU9MCGCVL35.png'
p225
aS'/afs/athena.mit.edu/user/j/g/jgross/web_scripts/alphabets/results/turk-images/latin/latin_19_A1QKU9MCGCVL35.png'
p226
aS'/afs/athena.mit.edu/user/j/g/jgross/web_scripts/alphabets/results/turk-images/latin/latin_20_A1QKU9MCGCVL35.png'
p227
aS'/afs/athena.mit.edu/user/j/g/jgross/web_scripts/alphabets/results/turk-images/latin/latin_21_A1QKU9MCGCVL35.png'
p228
aS'/afs/athena.mit.edu/user/j/g/jgross/web_scripts/alphabets/results/turk-images/latin/latin_22_A1QKU9MCGCVL35.png'
p229
aS'/afs/athena.mit.edu/user/j/g/jgross/web_scripts/alphabets/results/turk-images/latin/latin_23_A1QKU9MCGCVL35.png'
p230
aS'/afs/athena.mit.edu/user/j/g/jgross/web_scripts/alphabets/results/turk-images/latin/latin_24_A1QKU9MCGCVL35.png'
p231
aS'/afs/athena.mit.edu/user/j/g/jgross/web_scripts/alphabets/results/turk-images/latin/latin_25_A1QKU9MCGCVL35.png'
p232
aS'/afs/athena.mit.edu/user/j/g/jgross/web_scripts/alphabets/results/turk-images/latin/latin_26_A1QKU9MCGCVL35.png'
p233
asS'A2SR0EXGF0UVE1'
p234
(lp235
S'/afs/athena.mit.edu/user/j/g/jgross/web_scripts/alphabets/results/turk-images/latin/latin_01_A2SR0EXGF0UVE1.png'
p236
aS'/afs/athena.mit.edu/user/j/g/jgross/web_scripts/alphabets/results/turk-images/latin/latin_02_A2SR0EXGF0UVE1.png'
p237
aS'/afs/athena.mit.edu/user/j/g/jgross/web_scripts/alphabets/results/turk-images/latin/latin_03_A2SR0EXGF0UVE1.png'
p238
aS'/afs/athena.mit.edu/user/j/g/jgross/web_scripts/alphabets/results/turk-images/latin/latin_04_A2SR0EXGF0UVE1.png'
p239
aS'/afs/athena.mit.edu/user/j/g/jgross/web_scripts/alphabets/results/turk-images/latin/latin_05_A2SR0EXGF0UVE1.png'
p240
aS'/afs/athena.mit.edu/user/j/g/jgross/web_scripts/alphabets/results/turk-images/latin/latin_06_A2SR0EXGF0UVE1.png'
p241
aS'/afs/athena.mit.edu/user/j/g/jgross/web_scripts/alphabets/results/turk-images/latin/latin_07_A2SR0EXGF0UVE1.png'
p242
aS'/afs/athena.mit.edu/user/j/g/jgross/web_scripts/alphabets/results/turk-images/latin/latin_08_A2SR0EXGF0UVE1.png'
p243
aS'/afs/athena.mit.edu/user/j/g/jgross/web_scripts/alphabets/results/turk-images/latin/latin_09_A2SR0EXGF0UVE1.png'
p244
aS'/afs/athena.mit.edu/user/j/g/jgross/web_scripts/alphabets/results/turk-images/latin/latin_10_A2SR0EXGF0UVE1.png'
p245
aS'/afs/athena.mit.edu/user/j/g/jgross/web_scripts/alphabets/results/turk-images/latin/latin_11_A2SR0EXGF0UVE1.png'
p246
aS'/afs/athena.mit.edu/user/j/g/jgross/web_scripts/alphabets/results/turk-images/latin/latin_12_A2SR0EXGF0UVE1.png'
p247
aS'/afs/athena.mit.edu/user/j/g/jgross/web_scripts/alphabets/results/turk-images/latin/latin_13_A2SR0EXGF0UVE1.png'
p248
aS'/afs/athena.mit.edu/user/j/g/jgross/web_scripts/alphabets/results/turk-images/latin/latin_14_A2SR0EXGF0UVE1.png'
p249
aS'/afs/athena.mit.edu/user/j/g/jgross/web_scripts/alphabets/results/turk-images/latin/latin_15_A2SR0EXGF0UVE1.png'
p250
aS'/afs/athena.mit.edu/user/j/g/jgross/web_scripts/alphabets/results/turk-images/latin/latin_16_A2SR0EXGF0UVE1.png'
p251
aS'/afs/athena.mit.edu/user/j/g/jgross/web_scripts/alphabets/results/turk-images/latin/latin_17_A2SR0EXGF0UVE1.png'
p252
aS'/afs/athena.mit.edu/user/j/g/jgross/web_scripts/alphabets/results/turk-images/latin/latin_18_A2SR0EXGF0UVE1.png'
p253
aS'/afs/athena.mit.edu/user/j/g/jgross/web_scripts/alphabets/results/turk-images/latin/latin_19_A2SR0EXGF0UVE1.png'
p254
aS'/afs/athena.mit.edu/user/j/g/jgross/web_scripts/alphabets/results/turk-images/latin/latin_20_A2SR0EXGF0UVE1.png'
p255
aS'/afs/athena.mit.edu/user/j/g/jgross/web_scripts/alphabets/results/turk-images/latin/latin_21_A2SR0EXGF0UVE1.png'
p256
aS'/afs/athena.mit.edu/user/j/g/jgross/web_scripts/alphabets/results/turk-images/latin/latin_22_A2SR0EXGF0UVE1.png'
p257
aS'/afs/athena.mit.edu/user/j/g/jgross/web_scripts/alphabets/results/turk-images/latin/latin_23_A2SR0EXGF0UVE1.png'
p258
aS'/afs/athena.mit.edu/user/j/g/jgross/web_scripts/alphabets/results/turk-images/latin/latin_24_A2SR0EXGF0UVE1.png'
p259
aS'/afs/athena.mit.edu/user/j/g/jgross/web_scripts/alphabets/results/turk-images/latin/latin_25_A2SR0EXGF0UVE1.png'
p260
aS'/afs/athena.mit.edu/user/j/g/jgross/web_scripts/alphabets/results/turk-images/latin/latin_26_A2SR0EXGF0UVE1.png'
p261
assS'korean'
p262
(dp263
S'AJ74BNWTCX0MJ'
p264
(lp265
S'/afs/athena.mit.edu/user/j/g/jgross/web_scripts/alphabets/results/turk-images/korean/korean_01_AJ74BNWTCX0MJ.png'
p266
aS'/afs/athena.mit.edu/user/j/g/jgross/web_scripts/alphabets/results/turk-images/korean/korean_02_AJ74BNWTCX0MJ.png'
p267
aS'/afs/athena.mit.edu/user/j/g/jgross/web_scripts/alphabets/results/turk-images/korean/korean_03_AJ74BNWTCX0MJ.png'
p268
aS'/afs/athena.mit.edu/user/j/g/jgross/web_scripts/alphabets/results/turk-images/korean/korean_04_AJ74BNWTCX0MJ.png'
p269
aS'/afs/athena.mit.edu/user/j/g/jgross/web_scripts/alphabets/results/turk-images/korean/korean_05_AJ74BNWTCX0MJ.png'
p270
aS'/afs/athena.mit.edu/user/j/g/jgross/web_scripts/alphabets/results/turk-images/korean/korean_06_AJ74BNWTCX0MJ.png'
p271
aS'/afs/athena.mit.edu/user/j/g/jgross/web_scripts/alphabets/results/turk-images/korean/korean_07_AJ74BNWTCX0MJ.png'
p272
aS'/afs/athena.mit.edu/user/j/g/jgross/web_scripts/alphabets/results/turk-images/korean/korean_08_AJ74BNWTCX0MJ.png'
p273
aS'/afs/athena.mit.edu/user/j/g/jgross/web_scripts/alphabets/results/turk-images/korean/korean_09_AJ74BNWTCX0MJ.png'
p274
aS'/afs/athena.mit.edu/user/j/g/jgross/web_scripts/alphabets/results/turk-images/korean/korean_10_AJ74BNWTCX0MJ.png'
p275
aS'/afs/athena.mit.edu/user/j/g/jgross/web_scripts/alphabets/results/turk-images/korean/korean_11_AJ74BNWTCX0MJ.png'
p276
aS'/afs/athena.mit.edu/user/j/g/jgross/web_scripts/alphabets/results/turk-images/korean/korean_12_AJ74BNWTCX0MJ.png'
p277
aS'/afs/athena.mit.edu/user/j/g/jgross/web_scripts/alphabets/results/turk-images/korean/korean_13_AJ74BNWTCX0MJ.png'
p278
aS'/afs/athena.mit.edu/user/j/g/jgross/web_scripts/alphabets/results/turk-images/korean/korean_14_AJ74BNWTCX0MJ.png'
p279
aS'/afs/athena.mit.edu/user/j/g/jgross/web_scripts/alphabets/results/turk-images/korean/korean_15_AJ74BNWTCX0MJ.png'
p280
aS'/afs/athena.mit.edu/user/j/g/jgross/web_scripts/alphabets/results/turk-images/korean/korean_16_AJ74BNWTCX0MJ.png'
p281
aS'/afs/athena.mit.edu/user/j/g/jgross/web_scripts/alphabets/results/turk-images/korean/korean_17_AJ74BNWTCX0MJ.png'
p282
aS'/afs/athena.mit.edu/user/j/g/jgross/web_scripts/alphabets/results/turk-images/korean/korean_18_AJ74BNWTCX0MJ.png'
p283
aS'/afs/athena.mit.edu/user/j/g/jgross/web_scripts/alphabets/results/turk-images/korean/korean_19_AJ74BNWTCX0MJ.png'
p284
aS'/afs/athena.mit.edu/user/j/g/jgross/web_scripts/alphabets/results/turk-images/korean/korean_20_AJ74BNWTCX0MJ.png'
p285
aS'/afs/athena.mit.edu/user/j/g/jgross/web_scripts/alphabets/results/turk-images/korean/korean_21_AJ74BNWTCX0MJ.png'
p286
aS'/afs/athena.mit.edu/user/j/g/jgross/web_scripts/alphabets/results/turk-images/korean/korean_22_AJ74BNWTCX0MJ.png'
p287
aS'/afs/athena.mit.edu/user/j/g/jgross/web_scripts/alphabets/results/turk-images/korean/korean_23_AJ74BNWTCX0MJ.png'
p288
aS'/afs/athena.mit.edu/user/j/g/jgross/web_scripts/alphabets/results/turk-images/korean/korean_24_AJ74BNWTCX0MJ.png'
p289
aS'/afs/athena.mit.edu/user/j/g/jgross/web_scripts/alphabets/results/turk-images/korean/korean_25_AJ74BNWTCX0MJ.png'
p290
aS'/afs/athena.mit.edu/user/j/g/jgross/web_scripts/alphabets/results/turk-images/korean/korean_26_AJ74BNWTCX0MJ.png'
p291
aS'/afs/athena.mit.edu/user/j/g/jgross/web_scripts/alphabets/results/turk-images/korean/korean_27_AJ74BNWTCX0MJ.png'
p292
aS'/afs/athena.mit.edu/user/j/g/jgross/web_scripts/alphabets/results/turk-images/korean/korean_28_AJ74BNWTCX0MJ.png'
p293
aS'/afs/athena.mit.edu/user/j/g/jgross/web_scripts/alphabets/results/turk-images/korean/korean_29_AJ74BNWTCX0MJ.png'
p294
aS'/afs/athena.mit.edu/user/j/g/jgross/web_scripts/alphabets/results/turk-images/korean/korean_30_AJ74BNWTCX0MJ.png'
p295
aS'/afs/athena.mit.edu/user/j/g/jgross/web_scripts/alphabets/results/turk-images/korean/korean_31_AJ74BNWTCX0MJ.png'
p296
aS'/afs/athena.mit.edu/user/j/g/jgross/web_scripts/alphabets/results/turk-images/korean/korean_32_AJ74BNWTCX0MJ.png'
p297
aS'/afs/athena.mit.edu/user/j/g/jgross/web_scripts/alphabets/results/turk-images/korean/korean_33_AJ74BNWTCX0MJ.png'
p298
aS'/afs/athena.mit.edu/user/j/g/jgross/web_scripts/alphabets/results/turk-images/korean/korean_34_AJ74BNWTCX0MJ.png'
p299
aS'/afs/athena.mit.edu/user/j/g/jgross/web_scripts/alphabets/results/turk-images/korean/korean_35_AJ74BNWTCX0MJ.png'
p300
aS'/afs/athena.mit.edu/user/j/g/jgross/web_scripts/alphabets/results/turk-images/korean/korean_36_AJ74BNWTCX0MJ.png'
p301
aS'/afs/athena.mit.edu/user/j/g/jgross/web_scripts/alphabets/results/turk-images/korean/korean_37_AJ74BNWTCX0MJ.png'
p302
aS'/afs/athena.mit.edu/user/j/g/jgross/web_scripts/alphabets/results/turk-images/korean/korean_38_AJ74BNWTCX0MJ.png'
p303
aS'/afs/athena.mit.edu/user/j/g/jgross/web_scripts/alphabets/results/turk-images/korean/korean_39_AJ74BNWTCX0MJ.png'
p304
aS'/afs/athena.mit.edu/user/j/g/jgross/web_scripts/alphabets/results/turk-images/korean/korean_40_AJ74BNWTCX0MJ.png'
p305
ass.