(lp1
Varcadian
p2
aVarmenian
p3
aVatemayar
p4
aVatlantean
p5
aVaurek_besh
p6
aVcyrillic
p7
aVfuthorc
p8
aVgreek
p9
aVgujarati
p10
aVgurmukhi
p11
aVinuktitut
p12
aVkannada
p13
aVkatakana
p14
aVkorean
p15
aVlatin
p16
aVmagi
p17
aVmanipuri
p18
aVmongolian
p19
aVmyanmar
p20
aVojibwe
p21
aVold_cyrillic
p22
aVsylheti
p23
aVtagalog
p24
aVulog
p25
a.