(lp1
(Vangelic
p2
S'*'
Va1z59eb58sfxpy
p3
tp4
a(Vatemayar
p5
S'*'
Vae0ibwt7easth
p6
tp7
a(Vatlantean
p8
S'*'
Va1a25pyfooa9ge
p9
tp10
a(Vaurek_besh
p11
S'*'
Va2pfktghhg1ofp
p12
tp13
a(Vavesta
p14
S'*'
Va3np21apvfa18b
p15
tp16
a(Vge_ez
p17
S'*'
Va3qat9qk6qumi2
p18
tp19
a(Vglagolitic
p20
S'*'
Va2zjm7e8tfjfux
p21
tp22
a(Vgurmukhi
p23
S'*'
Vaav4pzxd7oebd
p24
tp25
a(Vkannada
p26
S'*'
Vapd0da9xz3zlo
p27
tp28
a(Vkeble
p29
S'*'
Va2nrdo2klbsgxv
p30
tp31
a(Vmalayalam
p32
S'*'
Va1i92aaczrkacw
p33
tp34
a(Vmanipuri
p35
S'*'
Va3qwezep0s9sb
p36
tp37
a(Vmongolian
p38
S'*'
Va1clejhb2x9yyn
p39
tp40
a(Vold_cyrillic
p41
S'*'
Va1manxzolpzden
p42
tp43
a(Voriya
p44
S'*'
Va2akud1gxdstsd
p45
tp46
a(Vserto
p47
S'*'
Va3qat9qk6qumi2
p48
tp49
a(Vsylheti
p50
S'*'
Va1qku9mcgcvl35
p51
tp52
a(Vtengwar
p53
S'*'
Vaoms2ywllwnkg
p54
tp55
a(Vtibetan
p56
S'*'
Va5379luint3pc
p57
tp58
a(Vulog
p59
S'*'
Va1z59eb58sfxpy
p60
tp61
a.