(lp1
(Vatemayar
p2
I5
tp3
a(Vatemayar
p4
I9
tp5
a(Vatemayar
p6
I11
tp7
a(Vatemayar
p8
I24
tp9
a(Vinuktitut
p10
I1
tp11
a(Vinuktitut
p12
I2
tp13
a(Vinuktitut
p14
I10
tp15
a(Vinuktitut
p16
I11
tp17
a(Vkorean
p18
I2
tp19
a(Vkorean
p20
I3
tp21
a(Vkorean
p22
I16
tp23
a(Vkorean
p24
I38
tp25
a(Vmyanmar
p26
I3
tp27
a(Vmyanmar
p28
I7
tp29
a(Vmyanmar
p30
I15
tp31
a(Vmyanmar
p32
I33
tp33
a(Vsylheti
p34
I2
tp35
a(Vsylheti
p36
I3
tp37
a(Vsylheti
p38
I12
tp39
a(Vsylheti
p40
I14
tp41
a(Vtagalog
p42
I0
tp43
a(Vtagalog
p44
I5
tp45
a(Vtagalog
p46
I9
tp47
a(Vtagalog
p48
I14
tp49
a.