(lp1
(Vatemayar
p2
I5
tp3
a(Vatemayar
p4
I9
tp5
a(Vatemayar
p6
I22
tp7
a(Vatemayar
p8
I24
tp9
a(Vinuktitut
p10
I0
tp11
a(Vinuktitut
p12
I1
tp13
a(Vinuktitut
p14
I2
tp15
a(Vinuktitut
p16
I10
tp17
a(Vkorean
p18
I3
tp19
a(Vkorean
p20
I27
tp21
a(Vkorean
p22
I28
tp23
a(Vkorean
p24
I38
tp25
a(Vmyanmar
p26
I0
tp27
a(Vmyanmar
p28
I24
tp29
a(Vmyanmar
p30
I30
tp31
a(Vmyanmar
p32
I31
tp33
a(Vsylheti
p34
I16
tp35
a(Vsylheti
p36
I18
tp37
a(Vsylheti
p38
I19
tp39
a(Vsylheti
p40
I27
tp41
a(Vtagalog
p42
I1
tp43
a(Vtagalog
p44
I4
tp45
a(Vtagalog
p46
I5
tp47
a(Vtagalog
p48
I9
tp49
a.