crandom
Random
p1
(tRp2
(I3
(L2147483648L
L1098712797L
L955014460L
L2003455495L
L207215394L
L4231549803L
L1943534628L
L1501294060L
L2822713210L
L486585719L
L592059509L
L1509109600L
L774397199L
L772752420L
L2990695480L
L3845282812L
L3447537925L
L1597192508L
L607458344L
L33735218L
L231933863L
L1745036926L
L540155891L
L1072947077L
L3719450579L
L1126781729L
L2781987772L
L2904660554L
L2257400637L
L2417059107L
L2713043723L
L429026094L
L2937646958L
L2390259081L
L716106990L
L1530617572L
L3341107872L
L3382605524L
L1477924442L
L1319101846L
L2952447650L
L3422589551L
L4131007787L
L3334896045L
L376484763L
L2384551620L
L1037940021L
L4020246552L
L1298511037L
L230607648L
L1473639930L
L3139120750L
L534709050L
L865336280L
L3150141995L
L2594040567L
L3880968215L
L2775033697L
L2898405444L
L386871255L
L499035595L
L1313292475L
L2353081508L
L2565998970L
L19938752L
L1938890932L
L2796882070L
L152497032L
L3800670412L
L3654433396L
L3771679269L
L3488900411L
L512553388L
L1029141636L
L640057169L
L201118964L
L160249840L
L1060200255L
L543666399L
L3928255020L
L3038560281L
L55514504L
L3702065440L
L2681648317L
L2407975918L
L302025376L
L3096325544L
L505974800L
L1750758624L
L1347226003L
L311821403L
L235830143L
L928746496L
L2223564084L
L3285728232L
L182849629L
L1950907162L
L2753331263L
L1507760712L
L766734017L
L4064441403L
L788619822L
L21008626L
L2952602089L
L1133080782L
L768459515L
L3084294474L
L104114876L
L2789482732L
L4292743154L
L2597498363L
L266990251L
L3343116170L
L3399187080L
L572025224L
L698695615L
L164435328L
L1375630208L
L1105791236L
L3939491457L
L2262406690L
L613891067L
L377438994L
L2095558430L
L2933368337L
L200718273L
L2694183044L
L1861781162L
L1898384055L
L3337591212L
L3102113099L
L2660847597L
L1787280268L
L2945625772L
L3905244382L
L2790160296L
L1474211599L
L517725670L
L2290932236L
L3864458580L
L2471505213L
L3593344720L
L925562024L
L311109783L
L150258235L
L1676100543L
L3479708704L
L769872524L
L2692928132L
L935991123L
L796051849L
L2172653649L
L1697847031L
L593986674L
L2901381385L
L927322136L
L1117329462L
L127588621L
L2471743694L
L876447664L
L3508596958L
L1806075174L
L2114042117L
L3684813930L
L2756072320L
L2098307062L
L1456314477L
L2460858320L
L1088192052L
L3389056404L
L3741350185L
L4243408839L
L285441656L
L2350878165L
L1009496682L
L4079672106L
L2531234353L
L644052445L
L4022470360L
L3078325436L
L3283755715L
L4208869883L
L1765080094L
L1577036900L
L612692834L
L1895461796L
L3040498867L
L3855684002L
L205151967L
L69996528L
L3734392091L
L2987398287L
L3041582981L
L2674370601L
L3866303538L
L1408810336L
L1336124487L
L852219882L
L3147983061L
L1465410384L
L1980332444L
L3696891916L
L4161871095L
L4277530819L
L2513881189L
L775883861L
L1618317581L
L1023069700L
L3882290674L
L2796779712L
L4168855317L
L1912647275L
L895978833L
L2371340837L
L3241077087L
L1476908260L
L776159654L
L1205042711L
L1455014915L
L1904961110L
L3359213415L
L3989901563L
L3711153015L
L1338279503L
L2333582263L
L1945168965L
L2294037641L
L315320008L
L3186277838L
L1338838444L
L2717253081L
L3213112792L
L2035735910L
L929720002L
L3124853556L
L221290764L
L4019283270L
L3626835384L
L4156315069L
L2164574585L
L1701714292L
L499953687L
L2426383539L
L1845028201L
L1661036431L
L3755746075L
L3250254155L
L3371122587L
L1038888098L
L2018141854L
L81831353L
L3813653544L
L2270304463L
L884179209L
L361356087L
L1602861822L
L2334906102L
L1271067878L
L279839534L
L1770982657L
L3388308010L
L286771593L
L327995382L
L2724449947L
L346673285L
L328617914L
L4031003750L
L1791066434L
L1037229253L
L276202435L
L2197149448L
L3405322387L
L1580666233L
L2732885339L
L2271551769L
L3118948866L
L2773271931L
L2470082057L
L2450138184L
L2649606226L
L354174180L
L3801682382L
L1008144235L
L799459638L
L3465490771L
L370986673L
L3403687991L
L316383147L
L2950605447L
L1152953563L
L3694417190L
L3502950041L
L3464238701L
L3261939158L
L536032106L
L2848992308L
L484095675L
L1756812317L
L454370631L
L343704158L
L2808939377L
L218180073L
L1326755820L
L1017881042L
L2091621934L
L3912419054L
L497451865L
L1203461765L
L4186848542L
L3718559043L
L3324918211L
L519907776L
L2808074656L
L1420590666L
L3277395077L
L319928019L
L1945659487L
L1871222543L
L2123259946L
L537478075L
L1513306019L
L2026707590L
L233616843L
L600906997L
L805931145L
L3501801977L
L2998827540L
L539181623L
L1180985427L
L4115493930L
L1422015167L
L779264783L
L1680371873L
L641154234L
L1556271267L
L371158889L
L1978163281L
L632788389L
L3435131655L
L2452781808L
L193770597L
L1181316002L
L1873265246L
L3682433449L
L1350693173L
L1682922680L
L4008699811L
L3649440146L
L2221069323L
L2315176064L
L227766996L
L3897794665L
L2695801908L
L1918816771L
L2747202987L
L4108735880L
L1024497483L
L2516319905L
L1992857713L
L338294494L
L1154248805L
L1434544461L
L78836795L
L768499010L
L551468277L
L2201368795L
L102057994L
L2135658927L
L2469743087L
L140185456L
L4140792366L
L4176887906L
L2271106774L
L3321190794L
L2030810059L
L4077220519L
L2098755674L
L346399748L
L4042558447L
L1323122643L
L1431556461L
L1769116803L
L3191210863L
L1937524042L
L107880544L
L4210725709L
L2672943641L
L170598200L
L2670106289L
L4023932770L
L2038381117L
L809922869L
L3261237609L
L505702182L
L1529547885L
L1187985955L
L3007717855L
L1257415274L
L2518653598L
L2720554520L
L3176187322L
L1473899368L
L1729963024L
L1446187782L
L1950220331L
L2878492143L
L1380444751L
L62926543L
L3903151354L
L727775231L
L1481375587L
L170995526L
L775064226L
L845846757L
L2247675051L
L503845128L
L372493457L
L2352018822L
L2463164461L
L399211791L
L3524079579L
L2469009244L
L3523436424L
L2905480022L
L2669502959L
L3840153094L
L2519405658L
L1303826082L
L3778301523L
L3233819558L
L1169466636L
L1545728283L
L3972605215L
L1929656925L
L2449135910L
L3402359561L
L3230709850L
L3503886191L
L3082688913L
L3238099272L
L1451092622L
L3427945253L
L3201306039L
L1884949249L
L2073495152L
L1449358536L
L998373561L
L3974073974L
L1901931824L
L122335128L
L742459216L
L4085587361L
L3400391763L
L2634838542L
L4038806142L
L321734363L
L2484751536L
L817362110L
L1629942147L
L1220459237L
L2409044193L
L2825266272L
L1620095884L
L2941809389L
L1052938845L
L2023285607L
L2297486186L
L1729106444L
L979283495L
L1236520132L
L3035051265L
L3599788613L
L1670509158L
L290223344L
L3219754272L
L116161950L
L1203101418L
L2803723558L
L2161466716L
L2089729463L
L3338043869L
L1591347001L
L3858286115L
L3467212251L
L317130056L
L1703644720L
L2078241973L
L2048750639L
L2900100713L
L2056051750L
L3362760895L
L2257484442L
L3045150853L
L1300291164L
L4214631729L
L2919396563L
L833990264L
L3861033361L
L3729109714L
L2986578468L
L4177931100L
L2287776304L
L2909126635L
L2143503171L
L2338421079L
L748428091L
L2759622617L
L2945208665L
L1110470359L
L2163637908L
L3239855060L
L2929196443L
L981994095L
L2264836204L
L2961495616L
L637920704L
L690566017L
L1974054213L
L2391143424L
L4064149817L
L2724043756L
L2872024638L
L3059944150L
L1994695480L
L2012774616L
L2888934517L
L1694405655L
L1839381986L
L1916508640L
L4098009019L
L2456847178L
L3799488618L
L3172742381L
L2420427329L
L789145115L
L4053877112L
L2495754250L
L4089462313L
L4000550516L
L1627660289L
L729494367L
L1506888568L
L3583983155L
L1732468339L
L1994670508L
L2206566166L
L1421939665L
L2625041134L
L1672595015L
L2243714595L
L2192004530L
L1099518826L
L3330322505L
L917108441L
L4039381045L
L438364945L
L972192400L
L1666355289L
L3418021570L
L2096763688L
L261845731L
L4076135668L
L2226242569L
L2098698504L
L4079615675L
L683995346L
L2189923927L
L567842995L
L1404177534L
L2129664554L
L2906604634L
L1286996455L
L465481717L
L1069667146L
L1885697020L
L3974295858L
L233443479L
L2798556868L
L969721131L
L3816934640L
L3127639228L
L1565351038L
L695719888L
L661200268L
L2063923054L
L3227430614L
L2892868397L
L2621963068L
L2758087617L
L3662352607L
L365203388L
L2378998866L
L2563792014L
L4251226352L
L1939671427L
L25125285L
L1089541548L
L2918166839L
L3254491765L
L1204346797L
L2422286038L
L2658261064L
L3180810544L
L396122896L
L2808700828L
L651940920L
L1254358368L
L3075477504L
L2441057940L
L3694044197L
L1142103928L
L189237575L
L2787883976L
L3274514469L
L1719777009L
L1855010077L
L2839437508L
L1953965574L
L969398991L
L2267965922L
L86229227L
L1224388963L
L67004690L
L3765607328L
L624L
tNtb.